; ModuleID = 'build/seq/main.preprocessed.ll'
source_filename = "src//main.cpp"
target datalayout = "e-m:e-i64:64-f80:128-n8:16:32:64-S128"
target triple = "x86_64-unknown-linux-gnu"

%"class.std::ios_base::Init" = type { i8 }
%"class.std::basic_ostream" = type { i32 (...)**, %"class.std::basic_ios" }
%"class.std::basic_ios" = type { %"class.std::ios_base", %"class.std::basic_ostream"*, i8, i8, %"class.std::basic_streambuf"*, %"class.std::ctype"*, %"class.std::num_put"*, %"class.std::num_get"* }
%"class.std::ios_base" = type { i32 (...)**, i64, i64, i32, i32, i32, %"struct.std::ios_base::_Callback_list"*, %"struct.std::ios_base::_Words", [8 x %"struct.std::ios_base::_Words"], i32, %"struct.std::ios_base::_Words"*, %"class.std::locale" }
%"struct.std::ios_base::_Callback_list" = type { %"struct.std::ios_base::_Callback_list"*, void (i32, %"class.std::ios_base"*, i32)*, i32, i32 }
%"struct.std::ios_base::_Words" = type { i8*, i64 }
%"class.std::locale" = type { %"class.std::locale::_Impl"* }
%"class.std::locale::_Impl" = type { i32, %"class.std::locale::facet"**, i64, %"class.std::locale::facet"**, i8** }
%"class.std::locale::facet" = type <{ i32 (...)**, i32, [4 x i8] }>
%"class.std::basic_streambuf" = type { i32 (...)**, i8*, i8*, i8*, i8*, i8*, i8*, %"class.std::locale" }
%"class.std::ctype" = type <{ %"class.std::locale::facet.base", [4 x i8], %struct.__locale_struct*, i8, [7 x i8], i32*, i32*, i16*, i8, [256 x i8], [256 x i8], i8, [6 x i8] }>
%"class.std::locale::facet.base" = type <{ i32 (...)**, i32 }>
%struct.__locale_struct = type { [13 x %struct.__locale_data*], i16*, i32*, i32*, [13 x i8*] }
%struct.__locale_data = type opaque
%"class.std::num_put" = type { %"class.std::locale::facet.base", [4 x i8] }
%"class.std::num_get" = type { %"class.std::locale::facet.base", [4 x i8] }
%class.MIT_HRTF = type { %class.HRTF }
%class.HRTF = type { i32 (...)**, i32, i32 }
%class.CAmbisonicSource = type { %class.CAmbisonicBase.base, %"class.std::vector.0", %"class.std::vector.0", %struct.PolarPoint, float }
%class.CAmbisonicBase.base = type <{ i32 (...)**, i32, i8, [3 x i8], i32, i8 }>
%"class.std::vector.0" = type { %"struct.std::_Vector_base.1" }
%"struct.std::_Vector_base.1" = type { %"struct.std::_Vector_base<float, std::allocator<float> >::_Vector_impl" }
%"struct.std::_Vector_base<float, std::allocator<float> >::_Vector_impl" = type { float*, float*, float* }
%struct.PolarPoint = type { float, float, float }
%class.CBFormat = type { %class.CAmbisonicBase.base, i32, i32, %"class.std::vector.0", %"class.std::unique_ptr" }
%"class.std::unique_ptr" = type { %"class.std::tuple" }
%"class.std::tuple" = type { %"struct.std::_Tuple_impl" }
%"struct.std::_Tuple_impl" = type { %"struct.std::_Head_base.6" }
%"struct.std::_Head_base.6" = type { float** }
%class.CAmbisonicEncoder = type { %class.CAmbisonicSource }
%class.CAmbisonicEncoderDist = type { %class.CAmbisonicEncoder, i32, float, i32, i32, float*, i32, i32, i32, float, float, float }
%class.CAmbisonicProcessor = type { %class.CAmbisonicBase.base, %class.Orientation, float*, %struct.kiss_fftr_state*, %struct.kiss_fftr_state*, float*, float**, i32, i32, i32, i32, i32, float, %struct.kiss_fft_cpx**, %struct.kiss_fft_cpx*, float, float, float, float, float, float, float, float, float, float, float, float, float, float, float, float, float, float }
%class.Orientation = type { float, float, float, float, float, float }
%struct.kiss_fftr_state = type opaque
%struct.kiss_fft_cpx = type { float, float }
%class.CAmbisonicSpeaker = type { %class.CAmbisonicSource }
%class.CAmbisonicDecoder = type { %class.CAmbisonicBase.base, i32, i32, %class.CAmbisonicSpeaker* }
%class.CAmbisonicZoomer = type { %class.CAmbisonicBase.base, %class.CAmbisonicDecoder, %"class.std::unique_ptr.12", %"class.std::unique_ptr.12", %"class.std::unique_ptr.12", float, float, float, float }
%"class.std::unique_ptr.12" = type { %"class.std::tuple.13" }
%"class.std::tuple.13" = type { %"struct.std::_Tuple_impl.14" }
%"struct.std::_Tuple_impl.14" = type { %"struct.std::_Head_base.19" }
%"struct.std::_Head_base.19" = type { float* }
%class.CAmbisonicBinauralizer = type { %class.CAmbisonicBase.base, %class.CAmbisonicDecoder, i32, i32, i32, i32, float, i32, %"class.std::unique_ptr.20", %"class.std::unique_ptr.20", [2 x %"class.std::vector.26"], %"class.std::unique_ptr.31", %"class.std::vector.0", %"class.std::vector.0", %"class.std::vector.0", [2 x %"class.std::vector.0"] }
%"class.std::unique_ptr.20" = type { %"class.std::tuple.21" }
%"class.std::tuple.21" = type { %"struct.std::_Tuple_impl.22" }
%"struct.std::_Tuple_impl.22" = type { %"struct.std::_Tuple_impl.23", %"struct.std::_Head_base.25" }
%"struct.std::_Tuple_impl.23" = type { %"struct.std::_Head_base.24" }
%"struct.std::_Head_base.24" = type { void (i8*)* }
%"struct.std::_Head_base.25" = type { %struct.kiss_fftr_state* }
%"class.std::vector.26" = type { %"struct.std::_Vector_base.27" }
%"struct.std::_Vector_base.27" = type { %"struct.std::_Vector_base<std::unique_ptr<kiss_fft_cpx [], std::default_delete<kiss_fft_cpx []> >, std::allocator<std::unique_ptr<kiss_fft_cpx [], std::default_delete<kiss_fft_cpx []> > > >::_Vector_impl" }
%"struct.std::_Vector_base<std::unique_ptr<kiss_fft_cpx [], std::default_delete<kiss_fft_cpx []> >, std::allocator<std::unique_ptr<kiss_fft_cpx [], std::default_delete<kiss_fft_cpx []> > > >::_Vector_impl" = type { %"class.std::unique_ptr.31"*, %"class.std::unique_ptr.31"*, %"class.std::unique_ptr.31"* }
%"class.std::unique_ptr.31" = type { %"class.std::tuple.32" }
%"class.std::tuple.32" = type { %"struct.std::_Tuple_impl.33" }
%"struct.std::_Tuple_impl.33" = type { %"struct.std::_Head_base.38" }
%"struct.std::_Head_base.38" = type { %struct.kiss_fft_cpx* }
%"class.ILLIXR_AUDIO::Sound" = type { %"class.std::basic_fstream"*, [1024 x float], %class.CBFormat*, %class.CAmbisonicEncoderDist*, %struct.PolarPoint, float }
%"class.std::basic_fstream" = type { %"class.std::basic_iostream.base", %"class.std::basic_filebuf", %"class.std::basic_ios" }
%"class.std::basic_iostream.base" = type { %"class.std::basic_istream.base", %"class.std::basic_ostream.base" }
%"class.std::basic_istream.base" = type { i32 (...)**, i64 }
%"class.std::basic_ostream.base" = type { i32 (...)** }
%"class.std::basic_filebuf" = type { %"class.std::basic_streambuf", %union.pthread_mutex_t, %"class.std::__basic_file", i32, %struct.__mbstate_t, %struct.__mbstate_t, %struct.__mbstate_t, i8*, i64, i8, i8, i8, i8, i8*, i8*, i8, %"class.std::codecvt"*, i8*, i64, i8*, i8* }
%union.pthread_mutex_t = type { %"struct.(anonymous union)::__pthread_mutex_s" }
%"struct.(anonymous union)::__pthread_mutex_s" = type { i32, i32, i32, i32, i32, i16, i16, %struct.__pthread_internal_list }
%struct.__pthread_internal_list = type { %struct.__pthread_internal_list*, %struct.__pthread_internal_list* }
%"class.std::__basic_file" = type <{ %struct._IO_FILE*, i8, [7 x i8] }>
%struct._IO_FILE = type { i32, i8*, i8*, i8*, i8*, i8*, i8*, i8*, i8*, i8*, i8*, i8*, %struct._IO_marker*, %struct._IO_FILE*, i32, i32, i64, i16, i8, [1 x i8], i8*, i64, i8*, i8*, i8*, i8*, i64, i32, [20 x i8] }
%struct._IO_marker = type { %struct._IO_marker*, %struct._IO_FILE*, i32 }
%struct.__mbstate_t = type { i32, %union.anon.42 }
%union.anon.42 = type { i32 }
%"class.std::codecvt" = type { %"class.std::__codecvt_abstract_base.base", %struct.__locale_struct* }
%"class.std::__codecvt_abstract_base.base" = type { %"class.std::locale::facet.base" }
%"class.std::__cxx11::basic_string" = type { %"struct.std::__cxx11::basic_string<char, std::char_traits<char>, std::allocator<char> >::_Alloc_hider", i64, %union.anon }
%"struct.std::__cxx11::basic_string<char, std::char_traits<char>, std::allocator<char> >::_Alloc_hider" = type { i8* }
%union.anon = type { i64, [8 x i8] }
%"class.ILLIXR_AUDIO::ABAudio" = type { i32, %"class.std::vector.43"*, %"class.std::basic_ofstream"*, %class.CAmbisonicBinauralizer*, %class.CAmbisonicBinauralizer*, %class.CAmbisonicProcessor*, %class.CAmbisonicZoomer* }
%"class.std::vector.43" = type { %"struct.std::_Vector_base.44" }
%"struct.std::_Vector_base.44" = type { %"struct.std::_Vector_base<ILLIXR_AUDIO::Sound *, std::allocator<ILLIXR_AUDIO::Sound *> >::_Vector_impl" }
%"struct.std::_Vector_base<ILLIXR_AUDIO::Sound *, std::allocator<ILLIXR_AUDIO::Sound *> >::_Vector_impl" = type { %"class.ILLIXR_AUDIO::Sound"**, %"class.ILLIXR_AUDIO::Sound"**, %"class.ILLIXR_AUDIO::Sound"** }
%"class.std::basic_ofstream" = type { %"class.std::basic_ostream.base", %"class.std::basic_filebuf", %"class.std::basic_ios" }
%class.CAmbisonicBase = type <{ i32 (...)**, i32, i8, [3 x i8], i32, i8, [3 x i8] }>
%"class.std::vector.7" = type { %"struct.std::_Vector_base.8" }
%"struct.std::_Vector_base.8" = type { %"struct.std::_Vector_base<std::unique_ptr<float [], std::default_delete<float []> >, std::allocator<std::unique_ptr<float [], std::default_delete<float []> > > >::_Vector_impl" }
%"struct.std::_Vector_base<std::unique_ptr<float [], std::default_delete<float []> >, std::allocator<std::unique_ptr<float [], std::default_delete<float []> > > >::_Vector_impl" = type { %"class.std::unique_ptr.12"*, %"class.std::unique_ptr.12"*, %"class.std::unique_ptr.12"* }
%"class.std::basic_istream" = type { i32 (...)**, i64, %"class.std::basic_ios" }
%"class.std::allocator.39" = type { i8 }
%"struct.ILLIXR_AUDIO::WAVHeader_t" = type { i32, i32, i32, i32, i32, i16, i16, i32, i32, i16, i16, i32, i32 }
%struct.out.rotatorSet_fxp = type <{ i64 }>
%struct.out.wrapperRotatorSet_fxp = type <{ i64 }>
%struct.out.psychoFilter_fxp = type <{ i64, i64, i64, i64, i64, i64, i64 }>
%struct.out.wrapperPsychoFilter_fxp = type <{ i64, i64, i64, i64, i64, i64, i64 }>
%struct.out.rotateOrder1_fxp = type <{ i64 }>
%struct.out.wrapperRotateOrder1_fxp = type <{ i64 }>
%struct.out.rotateOrder2_fxp = type <{ i64 }>
%struct.out.wrapperRotateOrder2_fxp = type <{ i64 }>
%struct.out.rotateOrder3_fxp = type <{ i64 }>
%struct.out.wrapperRotateOrder3_fxp = type <{ i64 }>
%struct.out.zoomSet_fxp = type <{ i64 }>
%struct.out.wrapperZoomSet_fxp = type <{ i64 }>
%struct.out.zoomProcess_fxp = type <{ i64, i64 }>
%struct.out.wrapperZoomProcess_fxp = type <{ i64, i64 }>
%struct.out.setAndFFT_left_fxp = type <{ i64 }>
%struct.out.wrapperSetAndFFT_left_fxp = type <{ i64 }>
%struct.out.setAndFFT_right_fxp = type <{ i64 }>
%struct.out.wrapperSetAndFFT_right_fxp = type <{ i64 }>
%struct.out.FIR_left_fxp = type <{ i64 }>
%struct.out.wrapperFIR_left_fxp = type <{ i64 }>
%struct.out.FIR_right_fxp = type <{ i64 }>
%struct.out.wrapperFIR_right_fxp = type <{ i64 }>
%struct.out.IFFT_left_fxp = type <{ i64 }>
%struct.out.wrapperIFFT_left_fxp = type <{ i64 }>
%struct.out.IFFT_right_fxp = type <{ i64 }>
%struct.out.wrapperIFFT_right_fxp = type <{ i64 }>
%struct.out.overlap_left_fxp = type <{ i64 }>
%struct.out.wrapperOverlap_left_fxp = type <{ i64 }>
%struct.out.overlap_right_fxp = type <{ i64 }>
%struct.out.wrapperOverlap_right_fxp = type <{ i64 }>
%emptyStruct = type <{}>

$_ZN11OrientationC2Efff = comdat any

$_ZNSt6vectorISt10unique_ptrIA_fSt14default_deleteIS1_EESaIS4_EED2Ev = comdat any

$_ZNSt6vectorISt10unique_ptrIA_12kiss_fft_cpxSt14default_deleteIS2_EESaIS5_EE6resizeEm = comdat any

$__clang_call_terminate = comdat any

$_ZN8CBFormatD2Ev = comdat any

$_ZN8MIT_HRTFD0Ev = comdat any

$_ZN14CAmbisonicBaseD2Ev = comdat any

$_ZN14CAmbisonicBaseD0Ev = comdat any

$_ZN16CAmbisonicSourceD2Ev = comdat any

$_ZN16CAmbisonicSourceD0Ev = comdat any

$_ZN8CBFormatD0Ev = comdat any

$_ZN16CAmbisonicZoomerD2Ev = comdat any

$_ZN16CAmbisonicZoomerD0Ev = comdat any

$_ZN22CAmbisonicBinauralizerD2Ev = comdat any

$_ZN22CAmbisonicBinauralizerD0Ev = comdat any

$_ZN4HRTFD2Ev = comdat any

$_ZNSt6vectorISt10unique_ptrIA_12kiss_fft_cpxSt14default_deleteIS2_EESaIS5_EED2Ev = comdat any

$_ZNSt10unique_ptrI15kiss_fftr_statePFvPvEED2Ev = comdat any

$_ZNSt7__cxx1112basic_stringIcSt11char_traitsIcESaIcEE12_M_constructIPcEEvT_S7_St20forward_iterator_tag = comdat any

$_ZNSt6vectorIfSaIfEE14_M_fill_insertEN9__gnu_cxx17__normal_iteratorIPfS1_EEmRKf = comdat any

$_ZNSt6vectorIfSaIfEE17_M_default_appendEm = comdat any

$_ZNSt6vectorISt10unique_ptrIA_fSt14default_deleteIS1_EESaIS4_EE19_M_emplace_back_auxIJPfEEEvDpOT_ = comdat any

$_ZNKSt6vectorISt10unique_ptrIA_fSt14default_deleteIS1_EESaIS4_EE12_M_check_lenEmPKc = comdat any

$_ZNSt6vectorISt10unique_ptrIA_12kiss_fft_cpxSt14default_deleteIS2_EESaIS5_EE17_M_default_appendEm = comdat any

$_ZNSt6vectorISt10unique_ptrIA_12kiss_fft_cpxSt14default_deleteIS2_EESaIS5_EE15_M_erase_at_endEPS5_ = comdat any

$_ZNKSt6vectorISt10unique_ptrIA_12kiss_fft_cpxSt14default_deleteIS2_EESaIS5_EE12_M_check_lenEmPKc = comdat any

$_ZTS4HRTF = comdat any

$_ZTI4HRTF = comdat any

@_ZStL8__ioinit = internal global %"class.std::ios_base::Init" zeroinitializer, align 1
@__dso_handle = external hidden global i8
@_ZTV8MIT_HRTF = unnamed_addr constant { [5 x i8*] } { [5 x i8*] [i8* null, i8* bitcast ({ i8*, i8*, i8* }* @_ZTI8MIT_HRTF to i8*), i8* bitcast (void (%class.HRTF*)* @_ZN4HRTFD2Ev to i8*), i8* bitcast (void (%class.MIT_HRTF*)* @_ZN8MIT_HRTFD0Ev to i8*), i8* bitcast (i1 (%class.MIT_HRTF*, float, float, float**)* @_ZN8MIT_HRTF3getEffPPf to i8*)] }, align 8
@_ZTV14CAmbisonicBase = unnamed_addr constant { [7 x i8*] } { [7 x i8*] [i8* null, i8* bitcast ({ i8*, i8* }* @_ZTI14CAmbisonicBase to i8*), i8* bitcast (void (%class.CAmbisonicBase*)* @_ZN14CAmbisonicBaseD2Ev to i8*), i8* bitcast (void (%class.CAmbisonicBase*)* @_ZN14CAmbisonicBaseD0Ev to i8*), i8* bitcast (i1 (%class.CAmbisonicBase*, i32, i1, i32)* @_ZN14CAmbisonicBase9ConfigureEjbj to i8*), i8* bitcast (void ()* @__cxa_pure_virtual to i8*), i8* bitcast (void ()* @__cxa_pure_virtual to i8*)] }, align 8
@_ZTV16CAmbisonicSource = unnamed_addr constant { [16 x i8*] } { [16 x i8*] [i8* null, i8* bitcast ({ i8*, i8*, i8* }* @_ZTI16CAmbisonicSource to i8*), i8* bitcast (void (%class.CAmbisonicSource*)* @_ZN16CAmbisonicSourceD2Ev to i8*), i8* bitcast (void (%class.CAmbisonicSource*)* @_ZN16CAmbisonicSourceD0Ev to i8*), i8* bitcast (i1 (%class.CAmbisonicSource*, i32, i1, i32)* @_ZN16CAmbisonicSource9ConfigureEjbj to i8*), i8* bitcast (void (%class.CAmbisonicSource*)* @_ZN16CAmbisonicSource5ResetEv to i8*), i8* bitcast (void (%class.CAmbisonicSource*)* @_ZN16CAmbisonicSource7RefreshEv to i8*), i8* bitcast (void (%class.CAmbisonicSource*, <2 x float>, float)* @_ZN16CAmbisonicSource11SetPositionE10PolarPoint to i8*), i8* bitcast ({ <2 x float>, float } (%class.CAmbisonicSource*)* @_ZN16CAmbisonicSource11GetPositionEv to i8*), i8* bitcast (void (%class.CAmbisonicSource*, i32, float)* @_ZN16CAmbisonicSource14SetOrderWeightEjf to i8*), i8* bitcast (void (%class.CAmbisonicSource*, float)* @_ZN16CAmbisonicSource17SetOrderWeightAllEf to i8*), i8* bitcast (void (%class.CAmbisonicSource*, i32, float)* @_ZN16CAmbisonicSource14SetCoefficientEjf to i8*), i8* bitcast (float (%class.CAmbisonicSource*, i32)* @_ZN16CAmbisonicSource14GetOrderWeightEj to i8*), i8* bitcast (float (%class.CAmbisonicSource*, i32)* @_ZN16CAmbisonicSource14GetCoefficientEj to i8*), i8* bitcast (void (%class.CAmbisonicSource*, float)* @_ZN16CAmbisonicSource7SetGainEf to i8*), i8* bitcast (float (%class.CAmbisonicSource*)* @_ZN16CAmbisonicSource7GetGainEv to i8*)] }, align 8
@_ZTV8CBFormat = unnamed_addr constant { [7 x i8*] } { [7 x i8*] [i8* null, i8* bitcast ({ i8*, i8*, i8* }* @_ZTI8CBFormat to i8*), i8* bitcast (void (%class.CBFormat*)* @_ZN8CBFormatD2Ev to i8*), i8* bitcast (void (%class.CBFormat*)* @_ZN8CBFormatD0Ev to i8*), i8* bitcast (i1 (%class.CBFormat*, i32, i1, i32)* @_ZN8CBFormat9ConfigureEjbj to i8*), i8* bitcast (void (%class.CBFormat*)* @_ZN8CBFormat5ResetEv to i8*), i8* bitcast (void (%class.CBFormat*)* @_ZN8CBFormat7RefreshEv to i8*)] }, align 8
@_ZTV17CAmbisonicEncoder = unnamed_addr constant { [16 x i8*] } { [16 x i8*] [i8* null, i8* bitcast ({ i8*, i8*, i8* }* @_ZTI17CAmbisonicEncoder to i8*), i8* bitcast (void (%class.CAmbisonicEncoder*)* @_ZN17CAmbisonicEncoderD2Ev to i8*), i8* bitcast (void (%class.CAmbisonicEncoder*)* @_ZN17CAmbisonicEncoderD0Ev to i8*), i8* bitcast (i1 (%class.CAmbisonicEncoder*, i32, i1, i32)* @_ZN17CAmbisonicEncoder9ConfigureEjbj to i8*), i8* bitcast (void (%class.CAmbisonicSource*)* @_ZN16CAmbisonicSource5ResetEv to i8*), i8* bitcast (void (%class.CAmbisonicEncoder*)* @_ZN17CAmbisonicEncoder7RefreshEv to i8*), i8* bitcast (void (%class.CAmbisonicSource*, <2 x float>, float)* @_ZN16CAmbisonicSource11SetPositionE10PolarPoint to i8*), i8* bitcast ({ <2 x float>, float } (%class.CAmbisonicSource*)* @_ZN16CAmbisonicSource11GetPositionEv to i8*), i8* bitcast (void (%class.CAmbisonicSource*, i32, float)* @_ZN16CAmbisonicSource14SetOrderWeightEjf to i8*), i8* bitcast (void (%class.CAmbisonicSource*, float)* @_ZN16CAmbisonicSource17SetOrderWeightAllEf to i8*), i8* bitcast (void (%class.CAmbisonicSource*, i32, float)* @_ZN16CAmbisonicSource14SetCoefficientEjf to i8*), i8* bitcast (float (%class.CAmbisonicSource*, i32)* @_ZN16CAmbisonicSource14GetOrderWeightEj to i8*), i8* bitcast (float (%class.CAmbisonicSource*, i32)* @_ZN16CAmbisonicSource14GetCoefficientEj to i8*), i8* bitcast (void (%class.CAmbisonicSource*, float)* @_ZN16CAmbisonicSource7SetGainEf to i8*), i8* bitcast (float (%class.CAmbisonicSource*)* @_ZN16CAmbisonicSource7GetGainEv to i8*)] }, align 8
@_ZTV21CAmbisonicEncoderDist = unnamed_addr constant { [16 x i8*] } { [16 x i8*] [i8* null, i8* bitcast ({ i8*, i8*, i8* }* @_ZTI21CAmbisonicEncoderDist to i8*), i8* bitcast (void (%class.CAmbisonicEncoderDist*)* @_ZN21CAmbisonicEncoderDistD2Ev to i8*), i8* bitcast (void (%class.CAmbisonicEncoderDist*)* @_ZN21CAmbisonicEncoderDistD0Ev to i8*), i8* bitcast (i1 (%class.CAmbisonicEncoderDist*, i32, i1, i32)* @_ZN21CAmbisonicEncoderDist9ConfigureEjbj to i8*), i8* bitcast (void (%class.CAmbisonicEncoderDist*)* @_ZN21CAmbisonicEncoderDist5ResetEv to i8*), i8* bitcast (void (%class.CAmbisonicEncoderDist*)* @_ZN21CAmbisonicEncoderDist7RefreshEv to i8*), i8* bitcast (void (%class.CAmbisonicSource*, <2 x float>, float)* @_ZN16CAmbisonicSource11SetPositionE10PolarPoint to i8*), i8* bitcast ({ <2 x float>, float } (%class.CAmbisonicSource*)* @_ZN16CAmbisonicSource11GetPositionEv to i8*), i8* bitcast (void (%class.CAmbisonicSource*, i32, float)* @_ZN16CAmbisonicSource14SetOrderWeightEjf to i8*), i8* bitcast (void (%class.CAmbisonicSource*, float)* @_ZN16CAmbisonicSource17SetOrderWeightAllEf to i8*), i8* bitcast (void (%class.CAmbisonicSource*, i32, float)* @_ZN16CAmbisonicSource14SetCoefficientEjf to i8*), i8* bitcast (float (%class.CAmbisonicSource*, i32)* @_ZN16CAmbisonicSource14GetOrderWeightEj to i8*), i8* bitcast (float (%class.CAmbisonicSource*, i32)* @_ZN16CAmbisonicSource14GetCoefficientEj to i8*), i8* bitcast (void (%class.CAmbisonicSource*, float)* @_ZN16CAmbisonicSource7SetGainEf to i8*), i8* bitcast (float (%class.CAmbisonicSource*)* @_ZN16CAmbisonicSource7GetGainEv to i8*)] }, align 8
@_ZTV19CAmbisonicProcessor = unnamed_addr constant { [7 x i8*] } { [7 x i8*] [i8* null, i8* bitcast ({ i8*, i8*, i8* }* @_ZTI19CAmbisonicProcessor to i8*), i8* bitcast (void (%class.CAmbisonicProcessor*)* @_ZN19CAmbisonicProcessorD2Ev to i8*), i8* bitcast (void (%class.CAmbisonicProcessor*)* @_ZN19CAmbisonicProcessorD0Ev to i8*), i8* bitcast (i1 (%class.CAmbisonicBase*, i32, i1, i32)* @_ZN14CAmbisonicBase9ConfigureEjbj to i8*), i8* bitcast (void (%class.CAmbisonicProcessor*)* @_ZN19CAmbisonicProcessor5ResetEv to i8*), i8* bitcast (void (%class.CAmbisonicProcessor*)* @_ZN19CAmbisonicProcessor7RefreshEv to i8*)] }, align 8
@_ZL14first_order_3D = internal unnamed_addr constant [2 x [101 x i16]] [[101 x i16] [i16 3, i16 3, i16 3, i16 3, i16 3, i16 3, i16 3, i16 3, i16 3, i16 3, i16 3, i16 2, i16 2, i16 1, i16 0, i16 -1, i16 -3, i16 -5, i16 -7, i16 -10, i16 -13, i16 -17, i16 -21, i16 -25, i16 -30, i16 -35, i16 -41, i16 -47, i16 -54, i16 -60, i16 -67, i16 -75, i16 -82, i16 -90, i16 -97, i16 -105, i16 -113, i16 -120, i16 -127, i16 -134, i16 -141, i16 -147, i16 -153, i16 -158, i16 -163, i16 -167, i16 -170, i16 -173, i16 -175, i16 -176, i16 23040, i16 -176, i16 -175, i16 -173, i16 -170, i16 -167, i16 -163, i16 -158, i16 -153, i16 -147, i16 -141, i16 -134, i16 -127, i16 -120, i16 -113, i16 -105, i16 -97, i16 -90, i16 -82, i16 -75, i16 -67, i16 -60, i16 -54, i16 -47, i16 -41, i16 -35, i16 -30, i16 -25, i16 -21, i16 -17, i16 -13, i16 -10, i16 -7, i16 -5, i16 -3, i16 -1, i16 0, i16 1, i16 2, i16 2, i16 3, i16 3, i16 3, i16 3, i16 3, i16 3, i16 3, i16 3, i16 3, i16 3, i16 3], [101 x i16] [i16 -2, i16 -2, i16 -2, i16 -2, i16 -2, i16 -2, i16 -2, i16 -3, i16 -2, i16 -2, i16 -2, i16 -2, i16 -2, i16 -1, i16 -1, i16 0, i16 1, i16 2, i16 3, i16 5, i16 7, i16 9, i16 11, i16 14, i16 16, i16 19, i16 23, i16 26, i16 30, i16 34, i16 38, i16 42, i16 46, i16 51, i16 55, i16 60, i16 64, i16 68, i16 73, i16 77, i16 80, i16 84, i16 87, i16 90, i16 93, i16 95, i16 97, i16 99, i16 100, i16 101, i16 13438, i16 101, i16 100, i16 99, i16 97, i16 95, i16 93, i16 90, i16 87, i16 84, i16 80, i16 77, i16 73, i16 68, i16 64, i16 60, i16 55, i16 51, i16 46, i16 42, i16 38, i16 34, i16 30, i16 26, i16 23, i16 19, i16 16, i16 14, i16 11, i16 9, i16 7, i16 5, i16 3, i16 2, i16 1, i16 0, i16 -1, i16 -1, i16 -2, i16 -2, i16 -2, i16 -2, i16 -2, i16 -3, i16 -2, i16 -2, i16 -2, i16 -2, i16 -2, i16 -2, i16 -2]], align 16
@_ZL15second_order_3D = internal unnamed_addr constant [3 x [101 x i16]] [[101 x i16] [i16 -5, i16 -5, i16 -6, i16 -6, i16 -7, i16 -7, i16 -7, i16 -7, i16 -7, i16 -6, i16 -5, i16 -3, i16 -1, i16 2, i16 6, i16 10, i16 15, i16 21, i16 26, i16 32, i16 38, i16 44, i16 49, i16 53, i16 55, i16 56, i16 54, i16 50, i16 42, i16 32, i16 19, i16 2, i16 -19, i16 -43, i16 -70, i16 -100, i16 -133, i16 -167, i16 -203, i16 -241, i16 -278, i16 -315, i16 -350, i16 -384, i16 -414, i16 -442, i16 -465, i16 -484, i16 -497, i16 -506, i16 25438, i16 -506, i16 -497, i16 -484, i16 -465, i16 -442, i16 -414, i16 -384, i16 -350, i16 -315, i16 -278, i16 -241, i16 -203, i16 -167, i16 -133, i16 -100, i16 -70, i16 -43, i16 -19, i16 2, i16 19, i16 32, i16 42, i16 50, i16 54, i16 56, i16 55, i16 53, i16 49, i16 44, i16 38, i16 32, i16 26, i16 21, i16 15, i16 10, i16 6, i16 2, i16 -1, i16 -3, i16 -5, i16 -6, i16 -7, i16 -7, i16 -7, i16 -7, i16 -7, i16 -6, i16 -6, i16 -5, i16 -5], [101 x i16] [i16 -2, i16 -2, i16 -3, i16 -3, i16 -3, i16 -3, i16 -3, i16 -3, i16 -3, i16 -3, i16 -2, i16 -2, i16 -1, i16 0, i16 2, i16 4, i16 6, i16 8, i16 10, i16 12, i16 15, i16 17, i16 19, i16 20, i16 21, i16 21, i16 21, i16 19, i16 16, i16 12, i16 7, i16 0, i16 -8, i16 -17, i16 -27, i16 -39, i16 -52, i16 -65, i16 -79, i16 -94, i16 -108, i16 -123, i16 -136, i16 -149, i16 -161, i16 -172, i16 -181, i16 -188, i16 -194, i16 -197, i16 19884, i16 -197, i16 -194, i16 -188, i16 -181, i16 -172, i16 -161, i16 -149, i16 -136, i16 -123, i16 -108, i16 -94, i16 -79, i16 -65, i16 -52, i16 -39, i16 -27, i16 -17, i16 -8, i16 0, i16 7, i16 12, i16 16, i16 19, i16 21, i16 21, i16 21, i16 20, i16 19, i16 17, i16 15, i16 12, i16 10, i16 8, i16 6, i16 4, i16 2, i16 0, i16 -1, i16 -2, i16 -2, i16 -3, i16 -3, i16 -3, i16 -3, i16 -3, i16 -3, i16 -3, i16 -3, i16 -2, i16 -2], [101 x i16] [i16 2, i16 3, i16 3, i16 3, i16 3, i16 4, i16 4, i16 4, i16 4, i16 3, i16 2, i16 1, i16 0, i16 -2, i16 -4, i16 -7, i16 -10, i16 -14, i16 -17, i16 -21, i16 -25, i16 -28, i16 -31, i16 -34, i16 -35, i16 -36, i16 -35, i16 -32, i16 -27, i16 -21, i16 -12, i16 -2, i16 11, i16 26, i16 43, i16 62, i16 82, i16 104, i16 127, i16 150, i16 173, i16 196, i16 219, i16 240, i16 259, i16 276, i16 290, i16 302, i16 311, i16 316, i16 10659, i16 316, i16 311, i16 302, i16 290, i16 276, i16 259, i16 240, i16 219, i16 196, i16 173, i16 150, i16 127, i16 104, i16 82, i16 62, i16 43, i16 26, i16 11, i16 -2, i16 -12, i16 -21, i16 -27, i16 -32, i16 -35, i16 -36, i16 -35, i16 -34, i16 -31, i16 -28, i16 -25, i16 -21, i16 -17, i16 -14, i16 -10, i16 -7, i16 -4, i16 -2, i16 0, i16 1, i16 2, i16 3, i16 4, i16 4, i16 4, i16 4, i16 3, i16 3, i16 3, i16 3, i16 2]], align 16
@_ZL14first_order_2D = internal unnamed_addr constant [2 x [101 x i16]] [[101 x i16] [i16 1, i16 1, i16 1, i16 1, i16 1, i16 1, i16 1, i16 1, i16 1, i16 1, i16 1, i16 1, i16 1, i16 0, i16 0, i16 -1, i16 -2, i16 -3, i16 -4, i16 -5, i16 -7, i16 -9, i16 -10, i16 -13, i16 -15, i16 -18, i16 -21, i16 -24, i16 -27, i16 -30, i16 -34, i16 -37, i16 -41, i16 -45, i16 -49, i16 -52, i16 -56, i16 -60, i16 -63, i16 -67, i16 -70, i16 -73, i16 -76, i16 -79, i16 -81, i16 -83, i16 -85, i16 -86, i16 -87, i16 -88, i16 19968, i16 -88, i16 -87, i16 -86, i16 -85, i16 -83, i16 -81, i16 -79, i16 -76, i16 -73, i16 -70, i16 -67, i16 -63, i16 -60, i16 -56, i16 -52, i16 -49, i16 -45, i16 -41, i16 -37, i16 -34, i16 -30, i16 -27, i16 -24, i16 -21, i16 -18, i16 -15, i16 -13, i16 -10, i16 -9, i16 -7, i16 -5, i16 -4, i16 -3, i16 -2, i16 -1, i16 0, i16 0, i16 1, i16 1, i16 1, i16 1, i16 1, i16 1, i16 1, i16 1, i16 1, i16 1, i16 1, i16 1, i16 1], [101 x i16] [i16 -2, i16 -2, i16 -2, i16 -2, i16 -2, i16 -2, i16 -2, i16 -2, i16 -2, i16 -2, i16 -2, i16 -2, i16 -1, i16 -1, i16 -1, i16 0, i16 1, i16 1, i16 2, i16 4, i16 5, i16 7, i16 8, i16 10, i16 12, i16 15, i16 17, i16 20, i16 23, i16 26, i16 29, i16 32, i16 35, i16 39, i16 42, i16 46, i16 49, i16 52, i16 55, i16 58, i16 61, i16 64, i16 67, i16 69, i16 71, i16 73, i16 74, i16 76, i16 76, i16 77, i16 14259, i16 77, i16 76, i16 76, i16 74, i16 73, i16 71, i16 69, i16 67, i16 64, i16 61, i16 58, i16 55, i16 52, i16 49, i16 46, i16 42, i16 39, i16 35, i16 32, i16 29, i16 26, i16 23, i16 20, i16 17, i16 15, i16 12, i16 10, i16 8, i16 7, i16 5, i16 4, i16 2, i16 1, i16 1, i16 0, i16 -1, i16 -1, i16 -1, i16 -2, i16 -2, i16 -2, i16 -2, i16 -2, i16 -2, i16 -2, i16 -2, i16 -2, i16 -2, i16 -2, i16 -2]], align 16
@_ZL15second_order_2D = internal unnamed_addr constant [3 x [101 x i16]] [[101 x i16] [i16 -3, i16 -3, i16 -3, i16 -3, i16 -4, i16 -4, i16 -4, i16 -4, i16 -4, i16 -3, i16 -3, i16 -2, i16 -1, i16 1, i16 3, i16 5, i16 7, i16 10, i16 13, i16 16, i16 19, i16 22, i16 24, i16 26, i16 27, i16 28, i16 27, i16 25, i16 21, i16 16, i16 9, i16 1, i16 -10, i16 -22, i16 -35, i16 -50, i16 -67, i16 -84, i16 -102, i16 -121, i16 -139, i16 -158, i16 -176, i16 -192, i16 -208, i16 -222, i16 -233, i16 -243, i16 -249, i16 -254, i16 20905, i16 -254, i16 -249, i16 -243, i16 -233, i16 -222, i16 -208, i16 -192, i16 -176, i16 -158, i16 -139, i16 -121, i16 -102, i16 -84, i16 -67, i16 -50, i16 -35, i16 -22, i16 -10, i16 1, i16 9, i16 16, i16 21, i16 25, i16 27, i16 28, i16 27, i16 26, i16 24, i16 22, i16 19, i16 16, i16 13, i16 10, i16 7, i16 5, i16 3, i16 1, i16 -1, i16 -2, i16 -3, i16 -3, i16 -4, i16 -4, i16 -4, i16 -4, i16 -4, i16 -3, i16 -3, i16 -3, i16 -3], [101 x i16] [i16 -1, i16 -1, i16 -2, i16 -2, i16 -2, i16 -2, i16 -2, i16 -2, i16 -2, i16 -2, i16 -1, i16 -1, i16 -1, i16 0, i16 1, i16 2, i16 3, i16 4, i16 5, i16 6, i16 8, i16 9, i16 10, i16 10, i16 11, i16 11, i16 11, i16 10, i16 8, i16 6, i16 3, i16 0, i16 -4, i16 -9, i16 -15, i16 -21, i16 -28, i16 -35, i16 -42, i16 -50, i16 -58, i16 -65, i16 -72, i16 -79, i16 -86, i16 -91, i16 -96, i16 -100, i16 -103, i16 -104, i16 18220, i16 -104, i16 -103, i16 -100, i16 -96, i16 -91, i16 -86, i16 -79, i16 -72, i16 -65, i16 -58, i16 -50, i16 -42, i16 -35, i16 -28, i16 -21, i16 -15, i16 -9, i16 -4, i16 0, i16 3, i16 6, i16 8, i16 10, i16 11, i16 11, i16 11, i16 10, i16 10, i16 9, i16 8, i16 6, i16 5, i16 4, i16 3, i16 2, i16 1, i16 0, i16 -1, i16 -1, i16 -1, i16 -2, i16 -2, i16 -2, i16 -2, i16 -2, i16 -2, i16 -2, i16 -2, i16 -1, i16 -1], [101 x i16] [i16 2, i16 2, i16 3, i16 3, i16 3, i16 3, i16 4, i16 4, i16 3, i16 3, i16 2, i16 1, i16 0, i16 -2, i16 -4, i16 -7, i16 -10, i16 -13, i16 -17, i16 -20, i16 -24, i16 -27, i16 -30, i16 -33, i16 -34, i16 -34, i16 -33, i16 -31, i16 -26, i16 -20, i16 -12, i16 -2, i16 11, i16 25, i16 41, i16 59, i16 79, i16 100, i16 122, i16 144, i16 166, i16 189, i16 210, i16 230, i16 249, i16 265, i16 279, i16 290, i16 298, i16 303, i16 10885, i16 303, i16 298, i16 290, i16 279, i16 265, i16 249, i16 230, i16 210, i16 189, i16 166, i16 144, i16 122, i16 100, i16 79, i16 59, i16 41, i16 25, i16 11, i16 -2, i16 -12, i16 -20, i16 -26, i16 -31, i16 -33, i16 -34, i16 -34, i16 -33, i16 -30, i16 -27, i16 -24, i16 -20, i16 -17, i16 -13, i16 -10, i16 -7, i16 -4, i16 -2, i16 0, i16 1, i16 2, i16 3, i16 3, i16 4, i16 4, i16 3, i16 3, i16 3, i16 3, i16 2, i16 2]], align 16
@_ZL14third_order_2D = internal unnamed_addr constant [4 x [101 x i16]] [[101 x i16] [i16 0, i16 1, i16 2, i16 2, i16 3, i16 3, i16 4, i16 4, i16 4, i16 3, i16 2, i16 0, i16 -2, i16 -4, i16 -7, i16 -10, i16 -13, i16 -16, i16 -18, i16 -20, i16 -20, i16 -18, i16 -15, i16 -10, i16 -3, i16 6, i16 16, i16 26, i16 37, i16 47, i16 56, i16 62, i16 64, i16 63, i16 57, i16 45, i16 27, i16 3, i16 -26, i16 -60, i16 -98, i16 -140, i16 -183, i16 -226, i16 -268, i16 -307, i16 -342, i16 -370, i16 -391, i16 -404, i16 21262, i16 -404, i16 -391, i16 -370, i16 -342, i16 -307, i16 -268, i16 -226, i16 -183, i16 -140, i16 -98, i16 -60, i16 -26, i16 3, i16 27, i16 45, i16 57, i16 63, i16 64, i16 62, i16 56, i16 47, i16 37, i16 26, i16 16, i16 6, i16 -3, i16 -10, i16 -15, i16 -18, i16 -20, i16 -20, i16 -18, i16 -16, i16 -13, i16 -10, i16 -7, i16 -4, i16 -2, i16 0, i16 2, i16 3, i16 4, i16 4, i16 4, i16 3, i16 3, i16 2, i16 2, i16 1, i16 0], [101 x i16] [i16 0, i16 1, i16 1, i16 1, i16 2, i16 2, i16 2, i16 2, i16 2, i16 2, i16 1, i16 0, i16 -1, i16 -3, i16 -5, i16 -7, i16 -9, i16 -11, i16 -13, i16 -14, i16 -14, i16 -13, i16 -10, i16 -7, i16 -2, i16 4, i16 10, i16 18, i16 25, i16 32, i16 38, i16 42, i16 44, i16 43, i16 39, i16 30, i16 18, i16 2, i16 -18, i16 -41, i16 -68, i16 -96, i16 -126, i16 -155, i16 -184, i16 -211, i16 -234, i16 -254, i16 -268, i16 -277, i16 19741, i16 -277, i16 -268, i16 -254, i16 -234, i16 -211, i16 -184, i16 -155, i16 -126, i16 -96, i16 -68, i16 -41, i16 -18, i16 2, i16 18, i16 30, i16 39, i16 43, i16 44, i16 42, i16 38, i16 32, i16 25, i16 18, i16 10, i16 4, i16 -2, i16 -7, i16 -10, i16 -13, i16 -14, i16 -14, i16 -13, i16 -11, i16 -9, i16 -7, i16 -5, i16 -3, i16 -1, i16 0, i16 1, i16 2, i16 2, i16 2, i16 2, i16 2, i16 2, i16 1, i16 1, i16 1, i16 0], [101 x i16] [i16 -1, i16 -1, i16 -1, i16 -1, i16 -1, i16 -1, i16 -1, i16 -1, i16 -1, i16 -1, i16 -1, i16 -1, i16 0, i16 0, i16 1, i16 2, i16 2, i16 3, i16 3, i16 4, i16 4, i16 3, i16 3, i16 1, i16 0, i16 -2, i16 -4, i16 -6, i16 -8, i16 -10, i16 -12, i16 -14, i16 -14, i16 -14, i16 -12, i16 -10, i16 -6, i16 -1, i16 5, i16 12, i16 20, i16 29, i16 38, i16 47, i16 56, i16 64, i16 71, i16 77, i16 82, i16 84, i16 15409, i16 84, i16 82, i16 77, i16 71, i16 64, i16 56, i16 47, i16 38, i16 29, i16 20, i16 12, i16 5, i16 -1, i16 -6, i16 -10, i16 -12, i16 -14, i16 -14, i16 -14, i16 -12, i16 -10, i16 -8, i16 -6, i16 -4, i16 -2, i16 0, i16 1, i16 3, i16 3, i16 4, i16 4, i16 3, i16 3, i16 2, i16 2, i16 1, i16 0, i16 0, i16 -1, i16 -1, i16 -1, i16 -1, i16 -1, i16 -1, i16 -1, i16 -1, i16 -1, i16 -1, i16 -1, i16 -1], [101 x i16] [i16 -2, i16 -3, i16 -4, i16 -5, i16 -6, i16 -6, i16 -7, i16 -7, i16 -7, i16 -6, i16 -4, i16 -2, i16 1, i16 5, i16 10, i16 15, i16 20, i16 24, i16 27, i16 29, i16 29, i16 27, i16 22, i16 14, i16 3, i16 -10, i16 -25, i16 -42, i16 -58, i16 -74, i16 -87, i16 -97, i16 -101, i16 -99, i16 -89, i16 -71, i16 -43, i16 -7, i16 39, i16 92, i16 151, i16 215, i16 282, i16 350, i16 415, i16 475, i16 528, i16 572, i16 605, i16 625, i16 8926, i16 625, i16 605, i16 572, i16 528, i16 475, i16 415, i16 350, i16 282, i16 215, i16 151, i16 92, i16 39, i16 -7, i16 -43, i16 -71, i16 -89, i16 -99, i16 -101, i16 -97, i16 -87, i16 -74, i16 -58, i16 -42, i16 -25, i16 -10, i16 3, i16 14, i16 22, i16 27, i16 29, i16 29, i16 27, i16 24, i16 20, i16 15, i16 10, i16 5, i16 1, i16 -2, i16 -4, i16 -6, i16 -7, i16 -7, i16 -7, i16 -6, i16 -6, i16 -5, i16 -4, i16 -3, i16 -2]], align 16
@_ZTV17CAmbisonicSpeaker = unnamed_addr constant { [16 x i8*] } { [16 x i8*] [i8* null, i8* bitcast ({ i8*, i8*, i8* }* @_ZTI17CAmbisonicSpeaker to i8*), i8* bitcast (void (%class.CAmbisonicSpeaker*)* @_ZN17CAmbisonicSpeakerD2Ev to i8*), i8* bitcast (void (%class.CAmbisonicSpeaker*)* @_ZN17CAmbisonicSpeakerD0Ev to i8*), i8* bitcast (i1 (%class.CAmbisonicSpeaker*, i32, i1, i32)* @_ZN17CAmbisonicSpeaker9ConfigureEjbj to i8*), i8* bitcast (void (%class.CAmbisonicSource*)* @_ZN16CAmbisonicSource5ResetEv to i8*), i8* bitcast (void (%class.CAmbisonicSpeaker*)* @_ZN17CAmbisonicSpeaker7RefreshEv to i8*), i8* bitcast (void (%class.CAmbisonicSource*, <2 x float>, float)* @_ZN16CAmbisonicSource11SetPositionE10PolarPoint to i8*), i8* bitcast ({ <2 x float>, float } (%class.CAmbisonicSource*)* @_ZN16CAmbisonicSource11GetPositionEv to i8*), i8* bitcast (void (%class.CAmbisonicSource*, i32, float)* @_ZN16CAmbisonicSource14SetOrderWeightEjf to i8*), i8* bitcast (void (%class.CAmbisonicSource*, float)* @_ZN16CAmbisonicSource17SetOrderWeightAllEf to i8*), i8* bitcast (void (%class.CAmbisonicSource*, i32, float)* @_ZN16CAmbisonicSource14SetCoefficientEjf to i8*), i8* bitcast (float (%class.CAmbisonicSource*, i32)* @_ZN16CAmbisonicSource14GetOrderWeightEj to i8*), i8* bitcast (float (%class.CAmbisonicSource*, i32)* @_ZN16CAmbisonicSource14GetCoefficientEj to i8*), i8* bitcast (void (%class.CAmbisonicSource*, float)* @_ZN16CAmbisonicSource7SetGainEf to i8*), i8* bitcast (float (%class.CAmbisonicSource*)* @_ZN16CAmbisonicSource7GetGainEv to i8*)] }, align 8
@_ZTV17CAmbisonicDecoder = unnamed_addr constant { [8 x i8*] } { [8 x i8*] [i8* null, i8* bitcast ({ i8*, i8*, i8* }* @_ZTI17CAmbisonicDecoder to i8*), i8* bitcast (void (%class.CAmbisonicDecoder*)* @_ZN17CAmbisonicDecoderD2Ev to i8*), i8* bitcast (void (%class.CAmbisonicDecoder*)* @_ZN17CAmbisonicDecoderD0Ev to i8*), i8* bitcast (i1 (%class.CAmbisonicBase*, i32, i1, i32)* @_ZN14CAmbisonicBase9ConfigureEjbj to i8*), i8* bitcast (void (%class.CAmbisonicDecoder*)* @_ZN17CAmbisonicDecoder5ResetEv to i8*), i8* bitcast (void (%class.CAmbisonicDecoder*)* @_ZN17CAmbisonicDecoder7RefreshEv to i8*), i8* bitcast (float (%class.CAmbisonicDecoder*, i32, i32)* @_ZN17CAmbisonicDecoder14GetCoefficientEjj to i8*)] }, align 8
@_ZTV16CAmbisonicZoomer = unnamed_addr constant { [7 x i8*] } { [7 x i8*] [i8* null, i8* bitcast ({ i8*, i8*, i8* }* @_ZTI16CAmbisonicZoomer to i8*), i8* bitcast (void (%class.CAmbisonicZoomer*)* @_ZN16CAmbisonicZoomerD2Ev to i8*), i8* bitcast (void (%class.CAmbisonicZoomer*)* @_ZN16CAmbisonicZoomerD0Ev to i8*), i8* bitcast (i1 (%class.CAmbisonicZoomer*, i32, i1, i32)* @_ZN16CAmbisonicZoomer9ConfigureEjbj to i8*), i8* bitcast (void (%class.CAmbisonicZoomer*)* @_ZN16CAmbisonicZoomer5ResetEv to i8*), i8* bitcast (void (%class.CAmbisonicZoomer*)* @_ZN16CAmbisonicZoomer7RefreshEv to i8*)] }, align 8
@_ZTV22CAmbisonicBinauralizer = unnamed_addr constant { [10 x i8*] } { [10 x i8*] [i8* null, i8* bitcast ({ i8*, i8*, i8* }* @_ZTI22CAmbisonicBinauralizer to i8*), i8* bitcast (void (%class.CAmbisonicBinauralizer*)* @_ZN22CAmbisonicBinauralizerD2Ev to i8*), i8* bitcast (void (%class.CAmbisonicBinauralizer*)* @_ZN22CAmbisonicBinauralizerD0Ev to i8*), i8* bitcast (i1 (%class.CAmbisonicBase*, i32, i1, i32)* @_ZN14CAmbisonicBase9ConfigureEjbj to i8*), i8* bitcast (void (%class.CAmbisonicBinauralizer*)* @_ZN22CAmbisonicBinauralizer5ResetEv to i8*), i8* bitcast (void (%class.CAmbisonicBinauralizer*)* @_ZN22CAmbisonicBinauralizer7RefreshEv to i8*), i8* bitcast (i1 (%class.CAmbisonicBinauralizer*, i32, i1, i32, i32, i32*, %"class.std::__cxx11::basic_string"*)* @_ZN22CAmbisonicBinauralizer9ConfigureEjbjjRjNSt7__cxx1112basic_stringIcSt11char_traitsIcESaIcEEE to i8*), i8* bitcast (void (%class.CAmbisonicBinauralizer*)* @_ZN22CAmbisonicBinauralizer15ArrangeSpeakersEv to i8*), i8* bitcast (void (%class.CAmbisonicBinauralizer*)* @_ZN22CAmbisonicBinauralizer15AllocateBuffersEv to i8*)] }, align 8
@_ZSt4cout = external global %"class.std::basic_ostream", align 8
@.str = private unnamed_addr constant [25 x i8] c"Getting first order cube\00", align 1
@.str.1 = private unnamed_addr constant [40 x i8] c"Getting second/third order dodecahedron\00", align 1
@.str.2 = private unnamed_addr constant [1 x i8] zeroinitializer, align 1
@.str.4 = private unnamed_addr constant [26 x i8] c"samples/lectureSample.wav\00", align 1
@.str.5 = private unnamed_addr constant [29 x i8] c"samples/radioMusicSample.wav\00", align 1
@_ZZN12ILLIXR_AUDIO7ABAudio14updateRotationEvE5frame = internal unnamed_addr global i32 0, align 4
@_ZZN12ILLIXR_AUDIO7ABAudio10updateZoomEvE5frame = internal unnamed_addr global i32 0, align 4
@_ZZ14rotatorSet_fxpE5frame = internal unnamed_addr global i32 0, align 4
@_ZZ11zoomSet_fxpE5frame = internal unnamed_addr global i32 0, align 4
@.str.6 = private unnamed_addr constant [8 x i8] c"Usage: \00", align 1
@.str.7 = private unnamed_addr constant [42 x i8] c" <number of size 1024 blocks to process> \00", align 1
@.str.8 = private unnamed_addr constant [27 x i8] c"<optional: encode/decode>\0A\00", align 1
@.str.9 = private unnamed_addr constant [122 x i8] c"Note: If you want to hear the output sound, limit the process sample blocks so that the output is not longer than input!\0A\00", align 1
@.str.10 = private unnamed_addr constant [11 x i8] c"output.wav\00", align 1
@_ZTVN10__cxxabiv120__si_class_type_infoE = external global i8*
@_ZTS8MIT_HRTF = constant [10 x i8] c"8MIT_HRTF\00", align 1
@_ZTVN10__cxxabiv117__class_type_infoE = external global i8*
@_ZTS4HRTF = linkonce_odr constant [6 x i8] c"4HRTF\00", comdat, align 1
@_ZTI4HRTF = linkonce_odr constant { i8*, i8* } { i8* bitcast (i8** getelementptr inbounds (i8*, i8** @_ZTVN10__cxxabiv117__class_type_infoE, i64 2) to i8*), i8* getelementptr inbounds ([6 x i8], [6 x i8]* @_ZTS4HRTF, i32 0, i32 0) }, comdat, align 8
@_ZTI8MIT_HRTF = constant { i8*, i8*, i8* } { i8* bitcast (i8** getelementptr inbounds (i8*, i8** @_ZTVN10__cxxabiv120__si_class_type_infoE, i64 2) to i8*), i8* getelementptr inbounds ([10 x i8], [10 x i8]* @_ZTS8MIT_HRTF, i32 0, i32 0), i8* bitcast ({ i8*, i8* }* @_ZTI4HRTF to i8*) }, align 8
@_ZTS14CAmbisonicBase = constant [17 x i8] c"14CAmbisonicBase\00", align 1
@_ZTI14CAmbisonicBase = constant { i8*, i8* } { i8* bitcast (i8** getelementptr inbounds (i8*, i8** @_ZTVN10__cxxabiv117__class_type_infoE, i64 2) to i8*), i8* getelementptr inbounds ([17 x i8], [17 x i8]* @_ZTS14CAmbisonicBase, i32 0, i32 0) }, align 8
@_ZTS16CAmbisonicSource = constant [19 x i8] c"16CAmbisonicSource\00", align 1
@_ZTI16CAmbisonicSource = constant { i8*, i8*, i8* } { i8* bitcast (i8** getelementptr inbounds (i8*, i8** @_ZTVN10__cxxabiv120__si_class_type_infoE, i64 2) to i8*), i8* getelementptr inbounds ([19 x i8], [19 x i8]* @_ZTS16CAmbisonicSource, i32 0, i32 0), i8* bitcast ({ i8*, i8* }* @_ZTI14CAmbisonicBase to i8*) }, align 8
@_ZTS8CBFormat = constant [10 x i8] c"8CBFormat\00", align 1
@_ZTI8CBFormat = constant { i8*, i8*, i8* } { i8* bitcast (i8** getelementptr inbounds (i8*, i8** @_ZTVN10__cxxabiv120__si_class_type_infoE, i64 2) to i8*), i8* getelementptr inbounds ([10 x i8], [10 x i8]* @_ZTS8CBFormat, i32 0, i32 0), i8* bitcast ({ i8*, i8* }* @_ZTI14CAmbisonicBase to i8*) }, align 8
@_ZTS17CAmbisonicEncoder = constant [20 x i8] c"17CAmbisonicEncoder\00", align 1
@_ZTI17CAmbisonicEncoder = constant { i8*, i8*, i8* } { i8* bitcast (i8** getelementptr inbounds (i8*, i8** @_ZTVN10__cxxabiv120__si_class_type_infoE, i64 2) to i8*), i8* getelementptr inbounds ([20 x i8], [20 x i8]* @_ZTS17CAmbisonicEncoder, i32 0, i32 0), i8* bitcast ({ i8*, i8*, i8* }* @_ZTI16CAmbisonicSource to i8*) }, align 8
@_ZTS21CAmbisonicEncoderDist = constant [24 x i8] c"21CAmbisonicEncoderDist\00", align 1
@_ZTI21CAmbisonicEncoderDist = constant { i8*, i8*, i8* } { i8* bitcast (i8** getelementptr inbounds (i8*, i8** @_ZTVN10__cxxabiv120__si_class_type_infoE, i64 2) to i8*), i8* getelementptr inbounds ([24 x i8], [24 x i8]* @_ZTS21CAmbisonicEncoderDist, i32 0, i32 0), i8* bitcast ({ i8*, i8*, i8* }* @_ZTI17CAmbisonicEncoder to i8*) }, align 8
@_ZTS19CAmbisonicProcessor = constant [22 x i8] c"19CAmbisonicProcessor\00", align 1
@_ZTI19CAmbisonicProcessor = constant { i8*, i8*, i8* } { i8* bitcast (i8** getelementptr inbounds (i8*, i8** @_ZTVN10__cxxabiv120__si_class_type_infoE, i64 2) to i8*), i8* getelementptr inbounds ([22 x i8], [22 x i8]* @_ZTS19CAmbisonicProcessor, i32 0, i32 0), i8* bitcast ({ i8*, i8* }* @_ZTI14CAmbisonicBase to i8*) }, align 8
@_ZTS17CAmbisonicSpeaker = constant [20 x i8] c"17CAmbisonicSpeaker\00", align 1
@_ZTI17CAmbisonicSpeaker = constant { i8*, i8*, i8* } { i8* bitcast (i8** getelementptr inbounds (i8*, i8** @_ZTVN10__cxxabiv120__si_class_type_infoE, i64 2) to i8*), i8* getelementptr inbounds ([20 x i8], [20 x i8]* @_ZTS17CAmbisonicSpeaker, i32 0, i32 0), i8* bitcast ({ i8*, i8*, i8* }* @_ZTI16CAmbisonicSource to i8*) }, align 8
@_ZTS17CAmbisonicDecoder = constant [20 x i8] c"17CAmbisonicDecoder\00", align 1
@_ZTI17CAmbisonicDecoder = constant { i8*, i8*, i8* } { i8* bitcast (i8** getelementptr inbounds (i8*, i8** @_ZTVN10__cxxabiv120__si_class_type_infoE, i64 2) to i8*), i8* getelementptr inbounds ([20 x i8], [20 x i8]* @_ZTS17CAmbisonicDecoder, i32 0, i32 0), i8* bitcast ({ i8*, i8* }* @_ZTI14CAmbisonicBase to i8*) }, align 8
@_ZTS16CAmbisonicZoomer = constant [19 x i8] c"16CAmbisonicZoomer\00", align 1
@_ZTI16CAmbisonicZoomer = constant { i8*, i8*, i8* } { i8* bitcast (i8** getelementptr inbounds (i8*, i8** @_ZTVN10__cxxabiv120__si_class_type_infoE, i64 2) to i8*), i8* getelementptr inbounds ([19 x i8], [19 x i8]* @_ZTS16CAmbisonicZoomer, i32 0, i32 0), i8* bitcast ({ i8*, i8* }* @_ZTI14CAmbisonicBase to i8*) }, align 8
@_ZTS22CAmbisonicBinauralizer = constant [25 x i8] c"22CAmbisonicBinauralizer\00", align 1
@_ZTI22CAmbisonicBinauralizer = constant { i8*, i8*, i8* } { i8* bitcast (i8** getelementptr inbounds (i8*, i8** @_ZTVN10__cxxabiv120__si_class_type_infoE, i64 2) to i8*), i8* getelementptr inbounds ([25 x i8], [25 x i8]* @_ZTS22CAmbisonicBinauralizer, i32 0, i32 0), i8* bitcast ({ i8*, i8* }* @_ZTI14CAmbisonicBase to i8*) }, align 8
@_ZL14third_order_3D = internal unnamed_addr constant <{ [101 x i16], [101 x i16], <{ [89 x i16], [12 x i16] }>, [101 x i16] }> <{ [101 x i16] [i16 1, i16 3, i16 4, i16 5, i16 6, i16 8, i16 8, i16 8, i16 8, i16 7, i16 5, i16 1, i16 -3, i16 -8, i16 -15, i16 -21, i16 -28, i16 -34, i16 -38, i16 -41, i16 -41, i16 -38, i16 -31, i16 -20, i16 -5, i16 13, i16 33, i16 56, i16 78, i16 99, i16 117, i16 130, i16 136, i16 133, i16 120, i16 95, i16 57, i16 8, i16 -54, i16 -126, i16 -206, i16 -294, i16 -384, i16 -476, i16 -564, i16 -646, i16 -718, i16 -778, i16 -823, i16 -850, i16 26604, i16 -850, i16 -823, i16 -778, i16 -718, i16 -646, i16 -564, i16 -476, i16 -384, i16 -294, i16 -206, i16 -126, i16 -54, i16 8, i16 57, i16 95, i16 120, i16 133, i16 136, i16 130, i16 117, i16 99, i16 78, i16 56, i16 33, i16 13, i16 -5, i16 -20, i16 -31, i16 -38, i16 -41, i16 -41, i16 -38, i16 -34, i16 -28, i16 -21, i16 -15, i16 -8, i16 -3, i16 1, i16 5, i16 7, i16 8, i16 8, i16 8, i16 8, i16 6, i16 5, i16 4, i16 3, i16 1], [101 x i16] [i16 1, i16 2, i16 2, i16 3, i16 4, i16 5, i16 5, i16 5, i16 5, i16 4, i16 3, i16 1, i16 -2, i16 -6, i16 -10, i16 -14, i16 -18, i16 -22, i16 -25, i16 -27, i16 -27, i16 -25, i16 -20, i16 -13, i16 -4, i16 8, i16 22, i16 36, i16 51, i16 65, i16 77, i16 85, i16 89, i16 87, i16 78, i16 62, i16 37, i16 5, i16 -35, i16 -82, i16 -135, i16 -192, i16 -252, i16 -311, i16 -369, i16 -423, i16 -470, i16 -509, i16 -538, i16 -556, i16 23082, i16 -556, i16 -538, i16 -509, i16 -470, i16 -423, i16 -369, i16 -311, i16 -252, i16 -192, i16 -135, i16 -82, i16 -35, i16 5, i16 37, i16 62, i16 78, i16 87, i16 89, i16 85, i16 77, i16 65, i16 51, i16 36, i16 22, i16 8, i16 -4, i16 -13, i16 -20, i16 -25, i16 -27, i16 -27, i16 -25, i16 -22, i16 -18, i16 -14, i16 -10, i16 -6, i16 -2, i16 1, i16 3, i16 4, i16 5, i16 5, i16 5, i16 5, i16 4, i16 3, i16 2, i16 2, i16 1], <{ [89 x i16], [12 x i16] }> <{ [89 x i16] [i16 0, i16 0, i16 0, i16 0, i16 0, i16 0, i16 0, i16 0, i16 0, i16 0, i16 0, i16 0, i16 -1, i16 -1, i16 -1, i16 -1, i16 -1, i16 -2, i16 -2, i16 -2, i16 -2, i16 -2, i16 -2, i16 -1, i16 -1, i16 0, i16 1, i16 1, i16 2, i16 3, i16 4, i16 4, i16 4, i16 4, i16 4, i16 3, i16 1, i16 0, i16 -2, i16 -5, i16 -8, i16 -11, i16 -14, i16 -17, i16 -20, i16 -23, i16 -25, i16 -27, i16 -29, i16 -30, i16 16773, i16 -30, i16 -29, i16 -27, i16 -25, i16 -23, i16 -20, i16 -17, i16 -14, i16 -11, i16 -8, i16 -5, i16 -2, i16 0, i16 1, i16 3, i16 4, i16 4, i16 4, i16 4, i16 4, i16 3, i16 2, i16 1, i16 1, i16 0, i16 -1, i16 -1, i16 -2, i16 -2, i16 -2, i16 -2, i16 -2, i16 -2, i16 -1, i16 -1, i16 -1, i16 -1, i16 -1], [12 x i16] zeroinitializer }>, [101 x i16] [i16 -2, i16 -3, i16 -4, i16 -5, i16 -6, i16 -6, i16 -7, i16 -7, i16 -7, i16 -6, i16 -4, i16 -2, i16 1, i16 5, i16 10, i16 15, i16 19, i16 24, i16 27, i16 29, i16 29, i16 27, i16 22, i16 14, i16 3, i16 -10, i16 -25, i16 -42, i16 -58, i16 -74, i16 -87, i16 -96, i16 -101, i16 -98, i16 -88, i16 -70, i16 -43, i16 -7, i16 38, i16 91, i16 150, i16 214, i16 280, i16 347, i16 412, i16 472, i16 525, i16 568, i16 601, i16 621, i16 8977, i16 621, i16 601, i16 568, i16 525, i16 472, i16 412, i16 347, i16 280, i16 214, i16 150, i16 91, i16 38, i16 -7, i16 -43, i16 -70, i16 -88, i16 -98, i16 -101, i16 -96, i16 -87, i16 -74, i16 -58, i16 -42, i16 -25, i16 -10, i16 3, i16 14, i16 22, i16 27, i16 29, i16 29, i16 27, i16 24, i16 19, i16 15, i16 10, i16 5, i16 1, i16 -2, i16 -4, i16 -6, i16 -7, i16 -7, i16 -7, i16 -6, i16 -6, i16 -5, i16 -4, i16 -3, i16 -2] }>, align 16
@.str.12 = private unnamed_addr constant [42 x i8] c"basic_string::_M_construct null not valid\00", align 1
@.str.13 = private unnamed_addr constant [23 x i8] c"vector::_M_fill_insert\00", align 1
@.str.14 = private unnamed_addr constant [26 x i8] c"vector::_M_default_append\00", align 1
@.str.15 = private unnamed_addr constant [28 x i8] c"vector::_M_emplace_back_aux\00", align 1
@llvm.global_ctors = appending global [1 x { i32, void ()*, i8* }] [{ i32, void ()*, i8* } { i32 65535, void ()* @_GLOBAL__sub_I_main.cpp, i8* null }]
@str = private unnamed_addr constant [35 x i8] c"Binauralizer Configuration failed!\00", align 1

@_ZN8MIT_HRTFC1Ej = unnamed_addr alias void (%class.MIT_HRTF*, i32), void (%class.MIT_HRTF*, i32)* @_ZN8MIT_HRTFC2Ej
@_ZN16CAmbisonicSourceC1Ev = unnamed_addr alias void (%class.CAmbisonicSource*), void (%class.CAmbisonicSource*)* @_ZN16CAmbisonicSourceC2Ev
@_ZN8CBFormatC1Ev = unnamed_addr alias void (%class.CBFormat*), void (%class.CBFormat*)* @_ZN8CBFormatC2Ev
@_ZN17CAmbisonicEncoderC1Ev = unnamed_addr alias void (%class.CAmbisonicEncoder*), void (%class.CAmbisonicEncoder*)* @_ZN17CAmbisonicEncoderC2Ev
@_ZN17CAmbisonicEncoderD1Ev = unnamed_addr alias void (%class.CAmbisonicEncoder*), void (%class.CAmbisonicEncoder*)* @_ZN17CAmbisonicEncoderD2Ev
@_ZN21CAmbisonicEncoderDistC1Ev = unnamed_addr alias void (%class.CAmbisonicEncoderDist*), void (%class.CAmbisonicEncoderDist*)* @_ZN21CAmbisonicEncoderDistC2Ev
@_ZN21CAmbisonicEncoderDistD1Ev = unnamed_addr alias void (%class.CAmbisonicEncoderDist*), void (%class.CAmbisonicEncoderDist*)* @_ZN21CAmbisonicEncoderDistD2Ev
@_ZN19CAmbisonicProcessorC1Ev = unnamed_addr alias void (%class.CAmbisonicProcessor*), void (%class.CAmbisonicProcessor*)* @_ZN19CAmbisonicProcessorC2Ev
@_ZN19CAmbisonicProcessorD1Ev = unnamed_addr alias void (%class.CAmbisonicProcessor*), void (%class.CAmbisonicProcessor*)* @_ZN19CAmbisonicProcessorD2Ev
@_ZN17CAmbisonicSpeakerC1Ev = unnamed_addr alias void (%class.CAmbisonicSpeaker*), void (%class.CAmbisonicSpeaker*)* @_ZN17CAmbisonicSpeakerC2Ev
@_ZN17CAmbisonicSpeakerD1Ev = unnamed_addr alias void (%class.CAmbisonicSpeaker*), void (%class.CAmbisonicSpeaker*)* @_ZN17CAmbisonicSpeakerD2Ev
@_ZN17CAmbisonicDecoderC1Ev = unnamed_addr alias void (%class.CAmbisonicDecoder*), void (%class.CAmbisonicDecoder*)* @_ZN17CAmbisonicDecoderC2Ev
@_ZN17CAmbisonicDecoderD1Ev = unnamed_addr alias void (%class.CAmbisonicDecoder*), void (%class.CAmbisonicDecoder*)* @_ZN17CAmbisonicDecoderD2Ev
@_ZN16CAmbisonicZoomerC1Ev = unnamed_addr alias void (%class.CAmbisonicZoomer*), void (%class.CAmbisonicZoomer*)* @_ZN16CAmbisonicZoomerC2Ev
@_ZN22CAmbisonicBinauralizerC1Ev = unnamed_addr alias void (%class.CAmbisonicBinauralizer*), void (%class.CAmbisonicBinauralizer*)* @_ZN22CAmbisonicBinauralizerC2Ev
@_ZN12ILLIXR_AUDIO5SoundC1ENSt7__cxx1112basic_stringIcSt11char_traitsIcESaIcEEEjb = unnamed_addr alias void (%"class.ILLIXR_AUDIO::Sound"*, %"class.std::__cxx11::basic_string"*, i32, i1), void (%"class.ILLIXR_AUDIO::Sound"*, %"class.std::__cxx11::basic_string"*, i32, i1)* @_ZN12ILLIXR_AUDIO5SoundC2ENSt7__cxx1112basic_stringIcSt11char_traitsIcESaIcEEEjb
@_ZN12ILLIXR_AUDIO5SoundD1Ev = unnamed_addr alias void (%"class.ILLIXR_AUDIO::Sound"*), void (%"class.ILLIXR_AUDIO::Sound"*)* @_ZN12ILLIXR_AUDIO5SoundD2Ev
@_ZN12ILLIXR_AUDIO7ABAudioC1ENSt7__cxx1112basic_stringIcSt11char_traitsIcESaIcEEENS0_11ProcessTypeE = unnamed_addr alias void (%"class.ILLIXR_AUDIO::ABAudio"*, %"class.std::__cxx11::basic_string"*, i32), void (%"class.ILLIXR_AUDIO::ABAudio"*, %"class.std::__cxx11::basic_string"*, i32)* @_ZN12ILLIXR_AUDIO7ABAudioC2ENSt7__cxx1112basic_stringIcSt11char_traitsIcESaIcEEENS0_11ProcessTypeE
@_ZN12ILLIXR_AUDIO7ABAudioD1Ev = unnamed_addr alias void (%"class.ILLIXR_AUDIO::ABAudio"*), void (%"class.ILLIXR_AUDIO::ABAudio"*)* @_ZN12ILLIXR_AUDIO7ABAudioD2Ev

declare void @_ZNSt8ios_base4InitC1Ev(%"class.std::ios_base::Init"*) unnamed_addr #0

; Function Attrs: nounwind
declare void @_ZNSt8ios_base4InitD1Ev(%"class.std::ios_base::Init"*) unnamed_addr #1

; Function Attrs: nofree nounwind
declare i32 @__cxa_atexit(void (i8*)*, i8*, i8*) local_unnamed_addr #2

; Function Attrs: uwtable
define void @_ZN8MIT_HRTFC2Ej(%class.MIT_HRTF* nocapture %this, i32 %i_sampleRate) unnamed_addr #3 align 2 personality i8* bitcast (i32 (...)* @__gxx_personality_v0 to i8*) !prof !61 {
entry:
  %0 = getelementptr inbounds %class.MIT_HRTF, %class.MIT_HRTF* %this, i64 0, i32 0, i32 0
  %i_sampleRate2.i = getelementptr inbounds %class.MIT_HRTF, %class.MIT_HRTF* %this, i64 0, i32 0, i32 1
  store i32 %i_sampleRate, i32* %i_sampleRate2.i, align 8, !tbaa !62
  %i_len.i = getelementptr inbounds %class.MIT_HRTF, %class.MIT_HRTF* %this, i64 0, i32 0, i32 2
  store i32 0, i32* %i_len.i, align 4, !tbaa !67
  store i32 (...)** bitcast (i8** getelementptr inbounds ({ [5 x i8*] }, { [5 x i8*] }* @_ZTV8MIT_HRTF, i64 0, inrange i32 0, i64 2) to i32 (...)**), i32 (...)*** %0, align 8, !tbaa !68
  %call = tail call i32 @mit_hrtf_availability(i32 0, i32 0, i32 %i_sampleRate)
  store i32 %call, i32* %i_len.i, align 4, !tbaa !67
  ret void
}

declare i32 @mit_hrtf_availability(i32, i32, i32) local_unnamed_addr #0

declare i32 @__gxx_personality_v0(...)

; Function Attrs: uwtable
define zeroext i1 @_ZN8MIT_HRTF3getEffPPf(%class.MIT_HRTF* nocapture readonly %this, float %f_azimuth, float %f_elevation, float** nocapture readonly %pfHRTF) unnamed_addr #3 align 2 personality i8* bitcast (i32 (...)* @__gxx_personality_v0 to i8*) !prof !70 {
entry:
  %nAzimuth = alloca i32, align 4
  %nElevation = alloca i32, align 4
  %0 = bitcast i32* %nAzimuth to i8*
  call void @llvm.lifetime.start.p0i8(i64 4, i8* nonnull %0) #24
  %sub = fsub float -0.000000e+00, %f_azimuth
  %call = tail call float @_Z16RadiansToDegreesf(float %sub)
  %conv = fptosi float %call to i32
  %cmp = icmp sgt i32 %conv, 180
  %sub2 = add nsw i32 %conv, -360
  %spec.select = select i1 %cmp, i32 %sub2, i32 %conv, !prof !71
  store i32 %spec.select, i32* %nAzimuth, align 4, !tbaa !72
  %1 = bitcast i32* %nElevation to i8*
  call void @llvm.lifetime.start.p0i8(i64 4, i8* nonnull %1) #24
  %call3 = tail call float @_Z16RadiansToDegreesf(float %f_elevation)
  %conv4 = fptosi float %call3 to i32
  store i32 %conv4, i32* %nElevation, align 4, !tbaa !72
  %i_len = getelementptr inbounds %class.MIT_HRTF, %class.MIT_HRTF* %this, i64 0, i32 0, i32 2
  %2 = load i32, i32* %i_len, align 4, !tbaa !67
  %conv5 = zext i32 %2 to i64
  %cmp.i.i.i.i = icmp eq i32 %2, 0
  br i1 %cmp.i.i.i.i, label %invoke.cont10, label %cond.true.i.i.i.i, !prof !73

cond.true.i.i.i.i:                                ; preds = %entry
  %mul.i.i.i.i.i.i = shl nuw nsw i64 %conv5, 1
  %call2.i.i.i.i3.i.i71 = invoke i8* @_Znwm(i64 %mul.i.i.i.i.i.i)
          to label %invoke.cont unwind label %ehcleanup.thread

invoke.cont:                                      ; preds = %cond.true.i.i.i.i
  %3 = bitcast i8* %call2.i.i.i.i3.i.i71 to i16*
  %4 = shl nuw nsw i64 %conv5, 1
  tail call void @llvm.memset.p0i8.i64(i8* nonnull align 2 %call2.i.i.i.i3.i.i71, i8 0, i64 %4, i1 false)
  %.pr = load i32, i32* %i_len, align 4, !tbaa !67
  %conv7 = zext i32 %.pr to i64
  %cmp.i.i.i.i76 = icmp eq i32 %.pr, 0
  br i1 %cmp.i.i.i.i76, label %invoke.cont10, label %cond.true.i.i.i.i77, !prof !74

cond.true.i.i.i.i77:                              ; preds = %invoke.cont
  %mul.i.i.i.i.i.i78 = shl nuw nsw i64 %conv7, 1
  %call2.i.i.i.i3.i.i88 = invoke i8* @_Znwm(i64 %mul.i.i.i.i.i.i78)
          to label %for.body.i.i.preheader.i.i.i.i.i85 unwind label %_ZNSt6vectorIsSaIsEED2Ev.exit95

for.body.i.i.preheader.i.i.i.i.i85:               ; preds = %cond.true.i.i.i.i77
  %5 = bitcast i8* %call2.i.i.i.i3.i.i88 to i16*
  %6 = shl nuw nsw i64 %conv7, 1
  tail call void @llvm.memset.p0i8.i64(i8* nonnull align 2 %call2.i.i.i.i3.i.i88, i8 0, i64 %6, i1 false)
  br label %invoke.cont10

invoke.cont10:                                    ; preds = %for.body.i.i.preheader.i.i.i.i.i85, %invoke.cont, %entry
  %7 = phi i16* [ %5, %for.body.i.i.preheader.i.i.i.i.i85 ], [ null, %invoke.cont ], [ null, %entry ]
  %8 = phi i8* [ %call2.i.i.i.i3.i.i88, %for.body.i.i.preheader.i.i.i.i.i85 ], [ null, %invoke.cont ], [ null, %entry ]
  %9 = phi i16* [ %3, %for.body.i.i.preheader.i.i.i.i.i85 ], [ %3, %invoke.cont ], [ null, %entry ]
  %10 = phi i8* [ %call2.i.i.i.i3.i.i71, %for.body.i.i.preheader.i.i.i.i.i85 ], [ %call2.i.i.i.i3.i.i71, %invoke.cont ], [ null, %entry ]
  %i_sampleRate = getelementptr inbounds %class.MIT_HRTF, %class.MIT_HRTF* %this, i64 0, i32 0, i32 1
  %11 = load i32, i32* %i_sampleRate, align 8, !tbaa !62
  %call19 = invoke i32 @mit_hrtf_get(i32* nonnull %nAzimuth, i32* nonnull %nElevation, i32 %11, i16* %9, i16* %7)
          to label %invoke.cont18 unwind label %lpad17

invoke.cont18:                                    ; preds = %invoke.cont10
  %cmp20 = icmp eq i32 %call19, 0
  br i1 %cmp20, label %cleanup, label %for.cond.preheader, !prof !71

for.cond.preheader:                               ; preds = %invoke.cont18
  %12 = load i32, i32* %i_len, align 4, !tbaa !67
  %cmp24104 = icmp eq i32 %12, 0
  br i1 %cmp24104, label %cleanup, label %for.body.lr.ph, !prof !75

for.body.lr.ph:                                   ; preds = %for.cond.preheader
  %13 = load float*, float** %pfHRTF, align 8, !tbaa !76
  %arrayidx38 = getelementptr inbounds float*, float** %pfHRTF, i64 1
  %14 = load float*, float** %arrayidx38, align 8, !tbaa !76
  %15 = zext i32 %12 to i64
  %min.iters.check = icmp ult i32 %12, 4
  br i1 %min.iters.check, label %for.body.preheader, label %vector.memcheck

for.body.preheader:                               ; preds = %middle.block, %vector.memcheck, %for.body.lr.ph
  %indvars.iv.ph = phi i64 [ 0, %vector.memcheck ], [ 0, %for.body.lr.ph ], [ %n.vec, %middle.block ]
  br label %for.body

vector.memcheck:                                  ; preds = %for.body.lr.ph
  %scevgep = getelementptr float, float* %13, i64 %15
  %scevgep122 = getelementptr float, float* %14, i64 %15
  %bound0 = icmp ult float* %13, %scevgep122
  %bound1 = icmp ult float* %14, %scevgep
  %found.conflict = and i1 %bound0, %bound1
  br i1 %found.conflict, label %for.body.preheader, label %vector.ph

vector.ph:                                        ; preds = %vector.memcheck
  %n.vec = and i64 %15, 4294967292
  br label %vector.body

vector.body:                                      ; preds = %vector.body, %vector.ph
  %index = phi i64 [ 0, %vector.ph ], [ %index.next, %vector.body ]
  %16 = getelementptr inbounds i16, i16* %9, i64 %index
  %17 = bitcast i16* %16 to <4 x i16>*
  %wide.load = load <4 x i16>, <4 x i16>* %17, align 2, !tbaa !78, !alias.scope !80
  %18 = sitofp <4 x i16> %wide.load to <4 x float>
  %19 = fdiv <4 x float> %18, <float 3.276700e+04, float 3.276700e+04, float 3.276700e+04, float 3.276700e+04>
  %20 = getelementptr inbounds float, float* %13, i64 %index
  %21 = bitcast float* %20 to <4 x float>*
  store <4 x float> %19, <4 x float>* %21, align 4, !tbaa !83, !alias.scope !85, !noalias !87
  %22 = getelementptr inbounds i16, i16* %7, i64 %index
  %23 = bitcast i16* %22 to <4 x i16>*
  %wide.load124 = load <4 x i16>, <4 x i16>* %23, align 2, !tbaa !78, !alias.scope !89
  %24 = sitofp <4 x i16> %wide.load124 to <4 x float>
  %25 = fdiv <4 x float> %24, <float 3.276700e+04, float 3.276700e+04, float 3.276700e+04, float 3.276700e+04>
  %26 = getelementptr inbounds float, float* %14, i64 %index
  %27 = bitcast float* %26 to <4 x float>*
  store <4 x float> %25, <4 x float>* %27, align 4, !tbaa !83, !alias.scope !87
  %index.next = add i64 %index, 4
  %28 = icmp eq i64 %index.next, %n.vec
  br i1 %28, label %middle.block, label %vector.body, !llvm.loop !91

middle.block:                                     ; preds = %vector.body
  %cmp.n = icmp eq i64 %n.vec, %15
  br i1 %cmp.n, label %if.then.i.i.i74, label %for.body.preheader

ehcleanup.thread:                                 ; preds = %cond.true.i.i.i.i
  %29 = landingpad { i8*, i32 }
          cleanup
  %30 = extractvalue { i8*, i32 } %29, 0
  br label %ehcleanup56

_ZNSt6vectorIsSaIsEED2Ev.exit95:                  ; preds = %cond.true.i.i.i.i77
  %31 = landingpad { i8*, i32 }
          cleanup
  %32 = extractvalue { i8*, i32 } %31, 0
  call void @_ZdlPv(i8* nonnull %call2.i.i.i.i3.i.i71) #24
  br label %ehcleanup56

lpad17:                                           ; preds = %invoke.cont10
  %33 = landingpad { i8*, i32 }
          cleanup
  %34 = extractvalue { i8*, i32 } %33, 0
  %tobool.i.i.i = icmp eq i16* %7, null
  br i1 %tobool.i.i.i, label %_ZNSt6vectorIsSaIsEED2Ev.exit, label %if.then.i.i.i, !prof !73

for.body:                                         ; preds = %for.body, %for.body.preheader
  %indvars.iv = phi i64 [ %indvars.iv.next, %for.body ], [ %indvars.iv.ph, %for.body.preheader ]
  %add.ptr.i91 = getelementptr inbounds i16, i16* %9, i64 %indvars.iv
  %35 = load i16, i16* %add.ptr.i91, align 2, !tbaa !78
  %conv29 = sitofp i16 %35 to float
  %div = fdiv float %conv29, 3.276700e+04
  %arrayidx31 = getelementptr inbounds float, float* %13, i64 %indvars.iv
  store float %div, float* %arrayidx31, align 4, !tbaa !83
  %add.ptr.i = getelementptr inbounds i16, i16* %7, i64 %indvars.iv
  %36 = load i16, i16* %add.ptr.i, align 2, !tbaa !78
  %conv36 = sitofp i16 %36 to float
  %div37 = fdiv float %conv36, 3.276700e+04
  %arrayidx40 = getelementptr inbounds float, float* %14, i64 %indvars.iv
  store float %div37, float* %arrayidx40, align 4, !tbaa !83
  %indvars.iv.next = add nuw nsw i64 %indvars.iv, 1
  %cmp24 = icmp ult i64 %indvars.iv.next, %15
  br i1 %cmp24, label %for.body, label %if.then.i.i.i74, !prof !93, !llvm.loop !94

cleanup:                                          ; preds = %for.cond.preheader, %invoke.cont18
  %retval.0 = phi i1 [ false, %invoke.cont18 ], [ true, %for.cond.preheader ]
  %tobool.i.i.i73 = icmp eq i16* %7, null
  br i1 %tobool.i.i.i73, label %_ZNSt6vectorIsSaIsEED2Ev.exit75, label %if.then.i.i.i74, !prof !95

if.then.i.i.i74:                                  ; preds = %cleanup, %for.body, %middle.block
  %retval.0119 = phi i1 [ %retval.0, %cleanup ], [ true, %middle.block ], [ true, %for.body ]
  call void @_ZdlPv(i8* nonnull %8) #24
  br label %_ZNSt6vectorIsSaIsEED2Ev.exit75

_ZNSt6vectorIsSaIsEED2Ev.exit75:                  ; preds = %if.then.i.i.i74, %cleanup
  %retval.0120 = phi i1 [ %retval.0, %cleanup ], [ %retval.0119, %if.then.i.i.i74 ]
  %tobool.i.i.i73.1 = icmp eq i16* %9, null
  br i1 %tobool.i.i.i73.1, label %_ZNSt6vectorIsSaIsEED2Ev.exit75.1, label %if.then.i.i.i74.1, !prof !73

if.then.i.i.i:                                    ; preds = %lpad17
  call void @_ZdlPv(i8* nonnull %8) #24
  br label %_ZNSt6vectorIsSaIsEED2Ev.exit

_ZNSt6vectorIsSaIsEED2Ev.exit:                    ; preds = %if.then.i.i.i, %lpad17
  %tobool.i.i.i.1 = icmp eq i16* %9, null
  br i1 %tobool.i.i.i.1, label %ehcleanup56, label %if.then.i.i.i.1, !prof !73

ehcleanup56:                                      ; preds = %if.then.i.i.i.1, %_ZNSt6vectorIsSaIsEED2Ev.exit, %_ZNSt6vectorIsSaIsEED2Ev.exit95, %ehcleanup.thread
  %.sink = phi { i8*, i32 } [ %31, %_ZNSt6vectorIsSaIsEED2Ev.exit95 ], [ %29, %ehcleanup.thread ], [ %33, %if.then.i.i.i.1 ], [ %33, %_ZNSt6vectorIsSaIsEED2Ev.exit ]
  %exn.slot.1 = phi i8* [ %32, %_ZNSt6vectorIsSaIsEED2Ev.exit95 ], [ %30, %ehcleanup.thread ], [ %34, %if.then.i.i.i.1 ], [ %34, %_ZNSt6vectorIsSaIsEED2Ev.exit ]
  %37 = extractvalue { i8*, i32 } %.sink, 1
  call void @llvm.lifetime.end.p0i8(i64 4, i8* nonnull %1) #24
  call void @llvm.lifetime.end.p0i8(i64 4, i8* nonnull %0) #24
  %lpad.val = insertvalue { i8*, i32 } undef, i8* %exn.slot.1, 0
  %lpad.val61 = insertvalue { i8*, i32 } %lpad.val, i32 %37, 1
  resume { i8*, i32 } %lpad.val61

if.then.i.i.i74.1:                                ; preds = %_ZNSt6vectorIsSaIsEED2Ev.exit75
  call void @_ZdlPv(i8* nonnull %10) #24
  br label %_ZNSt6vectorIsSaIsEED2Ev.exit75.1

_ZNSt6vectorIsSaIsEED2Ev.exit75.1:                ; preds = %if.then.i.i.i74.1, %_ZNSt6vectorIsSaIsEED2Ev.exit75
  call void @llvm.lifetime.end.p0i8(i64 4, i8* nonnull %1) #24
  call void @llvm.lifetime.end.p0i8(i64 4, i8* nonnull %0) #24
  ret i1 %retval.0120

if.then.i.i.i.1:                                  ; preds = %_ZNSt6vectorIsSaIsEED2Ev.exit
  call void @_ZdlPv(i8* nonnull %10) #24
  br label %ehcleanup56
}

; Function Attrs: argmemonly nounwind
declare void @llvm.lifetime.start.p0i8(i64 immarg, i8* nocapture) #4

declare float @_Z16RadiansToDegreesf(float) local_unnamed_addr #0

; Function Attrs: argmemonly nounwind
declare void @llvm.lifetime.end.p0i8(i64 immarg, i8* nocapture) #4

declare i32 @mit_hrtf_get(i32*, i32*, i32, i16*, i16*) local_unnamed_addr #0

; Function Attrs: nofree norecurse nounwind uwtable writeonly
define void @_ZN14CAmbisonicBaseC2Ev(%class.CAmbisonicBase* nocapture %this) unnamed_addr #5 align 2 !prof !96 {
entry:
  %0 = getelementptr inbounds %class.CAmbisonicBase, %class.CAmbisonicBase* %this, i64 0, i32 0
  store i32 (...)** bitcast (i8** getelementptr inbounds ({ [7 x i8*] }, { [7 x i8*] }* @_ZTV14CAmbisonicBase, i64 0, inrange i32 0, i64 2) to i32 (...)**), i32 (...)*** %0, align 8, !tbaa !68
  %m_nOrder = getelementptr inbounds %class.CAmbisonicBase, %class.CAmbisonicBase* %this, i64 0, i32 1
  store i32 0, i32* %m_nOrder, align 8, !tbaa !97
  %m_b3D = getelementptr inbounds %class.CAmbisonicBase, %class.CAmbisonicBase* %this, i64 0, i32 2
  store i8 0, i8* %m_b3D, align 4, !tbaa !100
  %m_nChannelCount = getelementptr inbounds %class.CAmbisonicBase, %class.CAmbisonicBase* %this, i64 0, i32 4
  store i32 0, i32* %m_nChannelCount, align 8, !tbaa !101
  %m_bOpt = getelementptr inbounds %class.CAmbisonicBase, %class.CAmbisonicBase* %this, i64 0, i32 5
  store i8 0, i8* %m_bOpt, align 4, !tbaa !102
  ret void
}

; Function Attrs: norecurse nounwind readonly uwtable
define i32 @_ZN14CAmbisonicBase8GetOrderEv(%class.CAmbisonicBase* nocapture readonly %this) local_unnamed_addr #6 align 2 !prof !103 {
entry:
  %m_nOrder = getelementptr inbounds %class.CAmbisonicBase, %class.CAmbisonicBase* %this, i64 0, i32 1
  %0 = load i32, i32* %m_nOrder, align 8, !tbaa !97
  ret i32 %0
}

; Function Attrs: norecurse nounwind readonly uwtable
define zeroext i1 @_ZN14CAmbisonicBase9GetHeightEv(%class.CAmbisonicBase* nocapture readonly %this) local_unnamed_addr #6 align 2 !prof !103 {
entry:
  %m_b3D = getelementptr inbounds %class.CAmbisonicBase, %class.CAmbisonicBase* %this, i64 0, i32 2
  %0 = load i8, i8* %m_b3D, align 4, !tbaa !100, !range !104
  %tobool = icmp ne i8 %0, 0
  ret i1 %tobool
}

; Function Attrs: norecurse nounwind readonly uwtable
define i32 @_ZN14CAmbisonicBase15GetChannelCountEv(%class.CAmbisonicBase* nocapture readonly %this) local_unnamed_addr #6 align 2 !prof !103 {
entry:
  %m_nChannelCount = getelementptr inbounds %class.CAmbisonicBase, %class.CAmbisonicBase* %this, i64 0, i32 4
  %0 = load i32, i32* %m_nChannelCount, align 8, !tbaa !101
  ret i32 %0
}

; Function Attrs: uwtable
define zeroext i1 @_ZN14CAmbisonicBase9ConfigureEjbj(%class.CAmbisonicBase* nocapture %this, i32 %nOrder, i1 zeroext %b3D, i32 %nMisc) unnamed_addr #3 align 2 !prof !105 {
entry:
  %frombool = zext i1 %b3D to i8
  %m_nOrder = getelementptr inbounds %class.CAmbisonicBase, %class.CAmbisonicBase* %this, i64 0, i32 1
  store i32 %nOrder, i32* %m_nOrder, align 8, !tbaa !97
  %m_b3D = getelementptr inbounds %class.CAmbisonicBase, %class.CAmbisonicBase* %this, i64 0, i32 2
  store i8 %frombool, i8* %m_b3D, align 4, !tbaa !100
  %call = tail call i32 @_Z17OrderToComponentsjb(i32 %nOrder, i1 zeroext %b3D)
  %m_nChannelCount = getelementptr inbounds %class.CAmbisonicBase, %class.CAmbisonicBase* %this, i64 0, i32 4
  store i32 %call, i32* %m_nChannelCount, align 8, !tbaa !101
  ret i1 true
}

declare i32 @_Z17OrderToComponentsjb(i32, i1 zeroext) local_unnamed_addr #0

; Function Attrs: nounwind uwtable
define void @_ZN16CAmbisonicSourceC2Ev(%class.CAmbisonicSource* nocapture %this) unnamed_addr #7 align 2 personality i32 (...)* @__gxx_personality_v0 !prof !106 {
entry:
  %0 = getelementptr inbounds %class.CAmbisonicSource, %class.CAmbisonicSource* %this, i64 0, i32 0, i32 0
  %1 = getelementptr inbounds %class.CAmbisonicSource, %class.CAmbisonicSource* %this, i64 0, i32 0, i32 1
  store i32 0, i32* %1, align 8, !tbaa !97
  %2 = getelementptr inbounds %class.CAmbisonicSource, %class.CAmbisonicSource* %this, i64 0, i32 0, i32 2
  store i8 0, i8* %2, align 4, !tbaa !100
  %3 = getelementptr inbounds %class.CAmbisonicSource, %class.CAmbisonicSource* %this, i64 0, i32 0, i32 4
  store i32 0, i32* %3, align 8, !tbaa !101
  %4 = getelementptr inbounds %class.CAmbisonicSource, %class.CAmbisonicSource* %this, i64 0, i32 0, i32 5
  store i8 0, i8* %4, align 4, !tbaa !102
  store i32 (...)** bitcast (i8** getelementptr inbounds ({ [16 x i8*] }, { [16 x i8*] }* @_ZTV16CAmbisonicSource, i64 0, inrange i32 0, i64 2) to i32 (...)**), i32 (...)*** %0, align 8, !tbaa !68
  %m_pfCoeff = getelementptr inbounds %class.CAmbisonicSource, %class.CAmbisonicSource* %this, i64 0, i32 1
  %fDistance = getelementptr inbounds %class.CAmbisonicSource, %class.CAmbisonicSource* %this, i64 0, i32 3, i32 2
  %5 = bitcast %"class.std::vector.0"* %m_pfCoeff to i8*
  call void @llvm.memset.p0i8.i64(i8* nonnull align 8 %5, i8 0, i64 56, i1 false)
  store float 1.000000e+00, float* %fDistance, align 8, !tbaa !107
  %m_fGain = getelementptr inbounds %class.CAmbisonicSource, %class.CAmbisonicSource* %this, i64 0, i32 4
  store float 1.000000e+00, float* %m_fGain, align 4, !tbaa !111
  ret void
}

; Function Attrs: uwtable
define zeroext i1 @_ZN16CAmbisonicSource9ConfigureEjbj(%class.CAmbisonicSource* %this, i32 %nOrder, i1 zeroext %b3D, i32 %nMisc) unnamed_addr #3 align 2 personality i32 (...)* @__gxx_personality_v0 !prof !112 {
entry:
  %ref.tmp = alloca float, align 4
  %ref.tmp5 = alloca float, align 4
  %frombool.i = zext i1 %b3D to i8
  %0 = getelementptr inbounds %class.CAmbisonicSource, %class.CAmbisonicSource* %this, i64 0, i32 0, i32 1
  store i32 %nOrder, i32* %0, align 8, !tbaa !97
  %1 = getelementptr inbounds %class.CAmbisonicSource, %class.CAmbisonicSource* %this, i64 0, i32 0, i32 2
  store i8 %frombool.i, i8* %1, align 4, !tbaa !100
  %call.i = tail call i32 @_Z17OrderToComponentsjb(i32 %nOrder, i1 zeroext %b3D)
  %2 = getelementptr inbounds %class.CAmbisonicSource, %class.CAmbisonicSource* %this, i64 0, i32 0, i32 4
  store i32 %call.i, i32* %2, align 8, !tbaa !101
  %m_pfCoeff = getelementptr inbounds %class.CAmbisonicSource, %class.CAmbisonicSource* %this, i64 0, i32 1
  %conv = zext i32 %call.i to i64
  %3 = bitcast float* %ref.tmp to i8*
  call void @llvm.lifetime.start.p0i8(i64 4, i8* nonnull %3) #24
  store float 0.000000e+00, float* %ref.tmp, align 4, !tbaa !83
  %_M_finish.i.i = getelementptr inbounds %class.CAmbisonicSource, %class.CAmbisonicSource* %this, i64 0, i32 1, i32 0, i32 0, i32 1
  %4 = bitcast float** %_M_finish.i.i to i64*
  %5 = load i64, i64* %4, align 8, !tbaa !113
  %6 = bitcast %"class.std::vector.0"* %m_pfCoeff to i64*
  %7 = load i64, i64* %6, align 8, !tbaa !116
  %sub.ptr.sub.i.i = sub i64 %5, %7
  %sub.ptr.div.i.i = ashr exact i64 %sub.ptr.sub.i.i, 2
  %cmp.i = icmp ult i64 %sub.ptr.div.i.i, %conv
  %8 = inttoptr i64 %7 to float*
  br i1 %cmp.i, label %if.then.i, label %if.else.i, !prof !117

if.then.i:                                        ; preds = %entry
  %9 = inttoptr i64 %5 to float*
  %sub.i = sub nsw i64 %conv, %sub.ptr.div.i.i
  call void @_ZNSt6vectorIfSaIfEE14_M_fill_insertEN9__gnu_cxx17__normal_iteratorIPfS1_EEmRKf(%"class.std::vector.0"* nonnull %m_pfCoeff, float* %9, i64 %sub.i, float* nonnull dereferenceable(4) %ref.tmp)
  br label %_ZNSt6vectorIfSaIfEE6resizeEmRKf.exit

if.else.i:                                        ; preds = %entry
  %cmp8.i = icmp ugt i64 %sub.ptr.div.i.i, %conv
  br i1 %cmp8.i, label %if.then9.i, label %_ZNSt6vectorIfSaIfEE6resizeEmRKf.exit

if.then9.i:                                       ; preds = %if.else.i
  %add.ptr.i = getelementptr inbounds float, float* %8, i64 %conv
  store float* %add.ptr.i, float** %_M_finish.i.i, align 8, !tbaa !113
  br label %_ZNSt6vectorIfSaIfEE6resizeEmRKf.exit

_ZNSt6vectorIfSaIfEE6resizeEmRKf.exit:            ; preds = %if.then9.i, %if.else.i, %if.then.i
  call void @llvm.lifetime.end.p0i8(i64 4, i8* nonnull %3) #24
  %m_pfOrderWeights = getelementptr inbounds %class.CAmbisonicSource, %class.CAmbisonicSource* %this, i64 0, i32 2
  %10 = load i32, i32* %0, align 8, !tbaa !97
  %add = add i32 %10, 1
  %conv4 = zext i32 %add to i64
  %11 = bitcast float* %ref.tmp5 to i8*
  call void @llvm.lifetime.start.p0i8(i64 4, i8* nonnull %11) #24
  store float 1.000000e+00, float* %ref.tmp5, align 4, !tbaa !83
  %_M_finish.i.i6 = getelementptr inbounds %class.CAmbisonicSource, %class.CAmbisonicSource* %this, i64 0, i32 2, i32 0, i32 0, i32 1
  %12 = bitcast float** %_M_finish.i.i6 to i64*
  %13 = load i64, i64* %12, align 8, !tbaa !113
  %14 = bitcast %"class.std::vector.0"* %m_pfOrderWeights to i64*
  %15 = load i64, i64* %14, align 8, !tbaa !116
  %sub.ptr.sub.i.i7 = sub i64 %13, %15
  %sub.ptr.div.i.i8 = ashr exact i64 %sub.ptr.sub.i.i7, 2
  %cmp.i9 = icmp ult i64 %sub.ptr.div.i.i8, %conv4
  %16 = inttoptr i64 %15 to float*
  br i1 %cmp.i9, label %if.then.i11, label %if.else.i13, !prof !117

if.then.i11:                                      ; preds = %_ZNSt6vectorIfSaIfEE6resizeEmRKf.exit
  %17 = inttoptr i64 %13 to float*
  %sub.i10 = sub nsw i64 %conv4, %sub.ptr.div.i.i8
  call void @_ZNSt6vectorIfSaIfEE14_M_fill_insertEN9__gnu_cxx17__normal_iteratorIPfS1_EEmRKf(%"class.std::vector.0"* nonnull %m_pfOrderWeights, float* %17, i64 %sub.i10, float* nonnull dereferenceable(4) %ref.tmp5)
  br label %_ZNSt6vectorIfSaIfEE6resizeEmRKf.exit16

if.else.i13:                                      ; preds = %_ZNSt6vectorIfSaIfEE6resizeEmRKf.exit
  %cmp8.i12 = icmp ugt i64 %sub.ptr.div.i.i8, %conv4
  br i1 %cmp8.i12, label %if.then9.i15, label %_ZNSt6vectorIfSaIfEE6resizeEmRKf.exit16

if.then9.i15:                                     ; preds = %if.else.i13
  %add.ptr.i14 = getelementptr inbounds float, float* %16, i64 %conv4
  store float* %add.ptr.i14, float** %_M_finish.i.i6, align 8, !tbaa !113
  br label %_ZNSt6vectorIfSaIfEE6resizeEmRKf.exit16

_ZNSt6vectorIfSaIfEE6resizeEmRKf.exit16:          ; preds = %if.then9.i15, %if.else.i13, %if.then.i11
  call void @llvm.lifetime.end.p0i8(i64 4, i8* nonnull %11) #24
  ret i1 true
}

; Function Attrs: norecurse nounwind readnone uwtable
define void @_ZN16CAmbisonicSource5ResetEv(%class.CAmbisonicSource* nocapture %this) unnamed_addr #8 align 2 !prof !103 {
entry:
  ret void
}

; Function Attrs: nofree nounwind uwtable
define void @_ZN16CAmbisonicSource7RefreshEv(%class.CAmbisonicSource* readonly %this) unnamed_addr #9 align 2 !prof !118 {
entry:
  %fAzimuth = getelementptr inbounds %class.CAmbisonicSource, %class.CAmbisonicSource* %this, i64 0, i32 3, i32 0
  %0 = load float, float* %fAzimuth, align 8, !tbaa !119
  %call = tail call float @cosf(float %0) #24
  %1 = load float, float* %fAzimuth, align 8, !tbaa !119
  %call4 = tail call float @sinf(float %1) #24
  %fElevation = getelementptr inbounds %class.CAmbisonicSource, %class.CAmbisonicSource* %this, i64 0, i32 3, i32 1
  %2 = load float, float* %fElevation, align 4, !tbaa !120
  %call6 = tail call float @cosf(float %2) #24
  %3 = load float, float* %fElevation, align 4, !tbaa !120
  %call9 = tail call float @sinf(float %3) #24
  %4 = load float, float* %fAzimuth, align 8, !tbaa !119
  %mul = fmul float %4, 2.000000e+00
  %call12 = tail call float @cosf(float %mul) #24
  %5 = load float, float* %fAzimuth, align 8, !tbaa !119
  %mul15 = fmul float %5, 2.000000e+00
  %call16 = tail call float @sinf(float %mul15) #24
  %6 = load float, float* %fElevation, align 4, !tbaa !120
  %mul19 = fmul float %6, 2.000000e+00
  %call20 = tail call float @sinf(float %mul19) #24
  %7 = getelementptr inbounds %class.CAmbisonicSource, %class.CAmbisonicSource* %this, i64 0, i32 0, i32 2
  %8 = load i8, i8* %7, align 4, !tbaa !100, !range !104
  %tobool = icmp eq i8 %8, 0
  %9 = getelementptr inbounds %class.CAmbisonicSource, %class.CAmbisonicSource* %this, i64 0, i32 0, i32 1
  %_M_start.i = getelementptr inbounds %class.CAmbisonicSource, %class.CAmbisonicSource* %this, i64 0, i32 2, i32 0, i32 0, i32 0
  %10 = load float*, float** %_M_start.i, align 8, !tbaa !116
  %11 = bitcast float* %10 to i32*
  %12 = load i32, i32* %11, align 4, !tbaa !83
  %_M_start.i420 = getelementptr inbounds %class.CAmbisonicSource, %class.CAmbisonicSource* %this, i64 0, i32 1, i32 0, i32 0, i32 0
  %13 = load float*, float** %_M_start.i420, align 8, !tbaa !116
  %14 = bitcast float* %13 to i32*
  store i32 %12, i32* %14, align 4, !tbaa !83
  %15 = load i32, i32* %9, align 8, !tbaa !97
  %cmp218 = icmp eq i32 %15, 0
  br i1 %tobool, label %if.then211, label %if.then21, !prof !121

if.then21:                                        ; preds = %entry
  br i1 %cmp218, label %if.end277, label %if.end45, !prof !121

if.end45:                                         ; preds = %if.then21
  %mul28 = fmul float %call4, %call6
  %add.ptr.i419 = getelementptr inbounds float, float* %10, i64 1
  %16 = load float, float* %add.ptr.i419, align 4, !tbaa !83
  %mul31 = fmul float %mul28, %16
  %add.ptr.i417 = getelementptr inbounds float, float* %13, i64 1
  store float %mul31, float* %add.ptr.i417, align 4, !tbaa !83
  %17 = load float, float* %add.ptr.i419, align 4, !tbaa !83
  %mul36 = fmul float %call9, %17
  %add.ptr.i413 = getelementptr inbounds float, float* %13, i64 2
  store float %mul36, float* %add.ptr.i413, align 4, !tbaa !83
  %mul39 = fmul float %call, %call6
  %18 = load float, float* %add.ptr.i419, align 4, !tbaa !83
  %mul42 = fmul float %mul39, %18
  %add.ptr.i409 = getelementptr inbounds float, float* %13, i64 3
  store float %mul42, float* %add.ptr.i409, align 4, !tbaa !83
  %cmp47 = icmp eq i32 %15, 1
  br i1 %cmp47, label %if.end277, label %if.end104, !prof !74

if.end104:                                        ; preds = %if.end45
  %square332 = fmul float %call6, %call6
  %mul51 = fmul float %square332, %call16
  %conv = fpext float %mul51 to double
  %mul52 = fmul double %conv, 0x3FEBB67AE8584CAA
  %add.ptr.i407 = getelementptr inbounds float, float* %10, i64 2
  %19 = load float, float* %add.ptr.i407, align 4, !tbaa !83
  %conv55 = fpext float %19 to double
  %mul56 = fmul double %mul52, %conv55
  %conv57 = fptrunc double %mul56 to float
  %add.ptr.i405 = getelementptr inbounds float, float* %13, i64 4
  store float %conv57, float* %add.ptr.i405, align 4, !tbaa !83
  %mul62 = fmul float %call4, %call20
  %conv63 = fpext float %mul62 to double
  %mul64 = fmul double %conv63, 0x3FEBB67AE8584CAA
  %20 = load float, float* %add.ptr.i407, align 4, !tbaa !83
  %conv67 = fpext float %20 to double
  %mul68 = fmul double %mul64, %conv67
  %conv69 = fptrunc double %mul68 to float
  %add.ptr.i401 = getelementptr inbounds float, float* %13, i64 5
  store float %conv69, float* %add.ptr.i401, align 4, !tbaa !83
  %square333 = fmul float %call9, %call9
  %mul73 = fmul float %square333, 1.500000e+00
  %sub = fadd float %mul73, -5.000000e-01
  %21 = load float, float* %add.ptr.i407, align 4, !tbaa !83
  %mul76 = fmul float %sub, %21
  %add.ptr.i397 = getelementptr inbounds float, float* %13, i64 6
  store float %mul76, float* %add.ptr.i397, align 4, !tbaa !83
  %mul81 = fmul float %call, %call20
  %conv82 = fpext float %mul81 to double
  %mul83 = fmul double %conv82, 0x3FEBB67AE8584CAA
  %22 = load float, float* %add.ptr.i407, align 4, !tbaa !83
  %conv86 = fpext float %22 to double
  %mul87 = fmul double %mul83, %conv86
  %conv88 = fptrunc double %mul87 to float
  %add.ptr.i393 = getelementptr inbounds float, float* %13, i64 7
  store float %conv88, float* %add.ptr.i393, align 4, !tbaa !83
  %mul94 = fmul float %square332, %call12
  %conv95 = fpext float %mul94 to double
  %mul96 = fmul double %conv95, 0x3FEBB67AE8584CAA
  %23 = load float, float* %add.ptr.i407, align 4, !tbaa !83
  %conv99 = fpext float %23 to double
  %mul100 = fmul double %mul96, %conv99
  %conv101 = fptrunc double %mul100 to float
  %add.ptr.i389 = getelementptr inbounds float, float* %13, i64 8
  store float %conv101, float* %add.ptr.i389, align 4, !tbaa !83
  %cmp106 = icmp ugt i32 %15, 2
  br i1 %cmp106, label %if.then107, label %if.end277, !prof !122

if.then107:                                       ; preds = %if.end104
  %24 = load float, float* %fAzimuth, align 8, !tbaa !119
  %mul111 = fmul float %24, 3.000000e+00
  %call112 = tail call float @sinf(float %mul111) #24
  %call113 = tail call float @powf(float %call6, float 3.000000e+00) #24
  %mul114 = fmul float %call112, %call113
  %conv115 = fpext float %mul114 to double
  %mul116 = fmul double %conv115, 0x3FE94C583ADA5B53
  %25 = load float*, float** %_M_start.i, align 8, !tbaa !116
  %add.ptr.i387 = getelementptr inbounds float, float* %25, i64 3
  %26 = load float, float* %add.ptr.i387, align 4, !tbaa !83
  %conv119 = fpext float %26 to double
  %mul120 = fmul double %mul116, %conv119
  %conv121 = fptrunc double %mul120 to float
  %27 = load float*, float** %_M_start.i420, align 8, !tbaa !116
  %add.ptr.i385 = getelementptr inbounds float, float* %27, i64 9
  store float %conv121, float* %add.ptr.i385, align 4, !tbaa !83
  %mul126 = fmul float %call9, %call16
  %mul128 = fmul float %square332, %mul126
  %conv129 = fpext float %mul128 to double
  %mul130 = fmul double %conv129, 0x3FFEFBDEB14F4EDA
  %28 = load float, float* %add.ptr.i387, align 4, !tbaa !83
  %conv133 = fpext float %28 to double
  %mul134 = fmul double %mul130, %conv133
  %conv135 = fptrunc double %mul134 to float
  %add.ptr.i381 = getelementptr inbounds float, float* %27, i64 10
  store float %conv135, float* %add.ptr.i381, align 4, !tbaa !83
  %mul141 = fmul float %square333, 5.000000e+00
  %sub142 = fadd float %mul141, -1.000000e+00
  %mul143 = fmul float %mul28, %sub142
  %conv144 = fpext float %mul143 to double
  %mul145 = fmul double %conv144, 0x3FE3988E1409212E
  %29 = load float, float* %add.ptr.i387, align 4, !tbaa !83
  %conv148 = fpext float %29 to double
  %mul149 = fmul double %mul145, %conv148
  %conv150 = fptrunc double %mul149 to float
  %add.ptr.i377 = getelementptr inbounds float, float* %27, i64 11
  store float %conv150, float* %add.ptr.i377, align 4, !tbaa !83
  %sub155 = fadd float %mul141, -3.000000e+00
  %mul156 = fmul float %call9, %sub155
  %mul157 = fmul float %mul156, 5.000000e-01
  %30 = load float, float* %add.ptr.i387, align 4, !tbaa !83
  %mul160 = fmul float %mul157, %30
  %add.ptr.i373 = getelementptr inbounds float, float* %27, i64 12
  store float %mul160, float* %add.ptr.i373, align 4, !tbaa !83
  %mul168 = fmul float %mul39, %sub142
  %conv169 = fpext float %mul168 to double
  %mul170 = fmul double %conv169, 0x3FE3988E1409212E
  %31 = load float, float* %add.ptr.i387, align 4, !tbaa !83
  %conv173 = fpext float %31 to double
  %mul174 = fmul double %mul170, %conv173
  %conv175 = fptrunc double %mul174 to float
  %add.ptr.i369 = getelementptr inbounds float, float* %27, i64 13
  store float %conv175, float* %add.ptr.i369, align 4, !tbaa !83
  %mul180 = fmul float %call9, %call12
  %mul182 = fmul float %square332, %mul180
  %conv183 = fpext float %mul182 to double
  %mul184 = fmul double %conv183, 0x3FFEFBDEB14F4EDA
  %32 = load float, float* %add.ptr.i387, align 4, !tbaa !83
  %conv187 = fpext float %32 to double
  %mul188 = fmul double %mul184, %conv187
  %conv189 = fptrunc double %mul188 to float
  %add.ptr.i365 = getelementptr inbounds float, float* %27, i64 14
  store float %conv189, float* %add.ptr.i365, align 4, !tbaa !83
  %33 = load float, float* %fAzimuth, align 8, !tbaa !119
  %mul195 = fmul float %33, 3.000000e+00
  %call196 = tail call float @cosf(float %mul195) #24
  %call197 = tail call float @powf(float %call6, float 3.000000e+00) #24
  %mul198 = fmul float %call196, %call197
  %conv199 = fpext float %mul198 to double
  %mul200 = fmul double %conv199, 0x3FE94C583ADA5B53
  %34 = load float*, float** %_M_start.i, align 8, !tbaa !116
  %add.ptr.i363 = getelementptr inbounds float, float* %34, i64 3
  %35 = load float, float* %add.ptr.i363, align 4, !tbaa !83
  %conv203 = fpext float %35 to double
  %mul204 = fmul double %mul200, %conv203
  %conv205 = fptrunc double %mul204 to float
  %36 = load float*, float** %_M_start.i420, align 8, !tbaa !116
  %add.ptr.i361 = getelementptr inbounds float, float* %36, i64 15
  store float %conv205, float* %add.ptr.i361, align 4, !tbaa !83
  br label %if.end277

if.then211:                                       ; preds = %entry
  br i1 %cmp218, label %if.end277, label %if.end232

if.end232:                                        ; preds = %if.then211
  %mul220 = fmul float %call, %call6
  %add.ptr.i359 = getelementptr inbounds float, float* %10, i64 1
  %37 = load float, float* %add.ptr.i359, align 4, !tbaa !83
  %mul223 = fmul float %mul220, %37
  %add.ptr.i357 = getelementptr inbounds float, float* %13, i64 1
  store float %mul223, float* %add.ptr.i357, align 4, !tbaa !83
  %mul226 = fmul float %call4, %call6
  %38 = load float, float* %add.ptr.i359, align 4, !tbaa !83
  %mul229 = fmul float %mul226, %38
  %add.ptr.i353 = getelementptr inbounds float, float* %13, i64 2
  store float %mul229, float* %add.ptr.i353, align 4, !tbaa !83
  %cmp234 = icmp eq i32 %15, 1
  br i1 %cmp234, label %if.end277, label %if.end250

if.end250:                                        ; preds = %if.end232
  %square = fmul float %call6, %call6
  %mul237 = fmul float %square, %call12
  %add.ptr.i351 = getelementptr inbounds float, float* %10, i64 2
  %39 = load float, float* %add.ptr.i351, align 4, !tbaa !83
  %mul240 = fmul float %mul237, %39
  %add.ptr.i349 = getelementptr inbounds float, float* %13, i64 3
  store float %mul240, float* %add.ptr.i349, align 4, !tbaa !83
  %mul244 = fmul float %square, %call16
  %40 = load float, float* %add.ptr.i351, align 4, !tbaa !83
  %mul247 = fmul float %mul244, %40
  %add.ptr.i345 = getelementptr inbounds float, float* %13, i64 4
  store float %mul247, float* %add.ptr.i345, align 4, !tbaa !83
  %cmp252 = icmp ugt i32 %15, 2
  br i1 %cmp252, label %if.then253, label %if.end277

if.then253:                                       ; preds = %if.end250
  %41 = load float, float* %fAzimuth, align 8, !tbaa !119
  %mul256 = fmul float %41, 3.000000e+00
  %call257 = tail call float @cosf(float %mul256) #24
  %call258 = tail call float @powf(float %call6, float 3.000000e+00) #24
  %mul259 = fmul float %call257, %call258
  %42 = load float*, float** %_M_start.i, align 8, !tbaa !116
  %add.ptr.i343 = getelementptr inbounds float, float* %42, i64 3
  %43 = load float, float* %add.ptr.i343, align 4, !tbaa !83
  %mul262 = fmul float %mul259, %43
  %44 = load float*, float** %_M_start.i420, align 8, !tbaa !116
  %add.ptr.i341 = getelementptr inbounds float, float* %44, i64 5
  store float %mul262, float* %add.ptr.i341, align 4, !tbaa !83
  %45 = load float, float* %fAzimuth, align 8, !tbaa !119
  %mul267 = fmul float %45, 3.000000e+00
  %call268 = tail call float @sinf(float %mul267) #24
  %call269 = tail call float @powf(float %call6, float 3.000000e+00) #24
  %mul270 = fmul float %call268, %call269
  %46 = load float*, float** %_M_start.i, align 8, !tbaa !116
  %add.ptr.i339 = getelementptr inbounds float, float* %46, i64 3
  %47 = load float, float* %add.ptr.i339, align 4, !tbaa !83
  %mul273 = fmul float %mul270, %47
  %48 = load float*, float** %_M_start.i420, align 8, !tbaa !116
  %add.ptr.i337 = getelementptr inbounds float, float* %48, i64 6
  store float %mul273, float* %add.ptr.i337, align 4, !tbaa !83
  br label %if.end277

if.end277:                                        ; preds = %if.then253, %if.end250, %if.end232, %if.then211, %if.then107, %if.end104, %if.end45, %if.then21
  %49 = phi float* [ %13, %if.end232 ], [ %13, %if.end45 ], [ %13, %if.then211 ], [ %13, %if.then21 ], [ %13, %if.end250 ], [ %48, %if.then253 ], [ %13, %if.end104 ], [ %36, %if.then107 ]
  %50 = bitcast float* %49 to i8*
  %51 = getelementptr inbounds %class.CAmbisonicSource, %class.CAmbisonicSource* %this, i64 0, i32 0, i32 4
  %52 = load i32, i32* %51, align 8, !tbaa !101
  %cmp278425 = icmp eq i32 %52, 0
  br i1 %cmp278425, label %for.cond.cleanup, label %for.body.lr.ph, !prof !123

for.body.lr.ph:                                   ; preds = %if.end277
  %m_fGain = getelementptr inbounds %class.CAmbisonicSource, %class.CAmbisonicSource* %this, i64 0, i32 4
  %53 = zext i32 %52 to i64
  %min.iters.check = icmp ult i32 %52, 8
  br i1 %min.iters.check, label %for.body.preheader, label %vector.memcheck

for.body.preheader:                               ; preds = %middle.block, %vector.memcheck, %for.body.lr.ph
  %indvars.iv.ph = phi i64 [ 0, %vector.memcheck ], [ 0, %for.body.lr.ph ], [ %n.vec, %middle.block ]
  %54 = or i64 %indvars.iv.ph, 1
  %55 = icmp ugt i64 %54, %53
  %umax = select i1 %55, i64 %54, i64 %53
  %56 = xor i64 %indvars.iv.ph, -1
  %57 = add nsw i64 %umax, %56
  %xtraiter = and i64 %umax, 3
  %lcmp.mod = icmp eq i64 %xtraiter, 0
  br i1 %lcmp.mod, label %for.body.prol.loopexit, label %for.body.prol

for.body.prol:                                    ; preds = %for.body.prol, %for.body.preheader
  %indvars.iv.prol = phi i64 [ %indvars.iv.next.prol, %for.body.prol ], [ %indvars.iv.ph, %for.body.preheader ]
  %prol.iter = phi i64 [ %prol.iter.sub, %for.body.prol ], [ %xtraiter, %for.body.preheader ]
  %58 = load float, float* %m_fGain, align 4, !tbaa !111
  %add.ptr.i.prol = getelementptr inbounds float, float* %49, i64 %indvars.iv.prol
  %59 = load float, float* %add.ptr.i.prol, align 4, !tbaa !83
  %mul282.prol = fmul float %58, %59
  store float %mul282.prol, float* %add.ptr.i.prol, align 4, !tbaa !83
  %indvars.iv.next.prol = add nuw nsw i64 %indvars.iv.prol, 1
  %prol.iter.sub = add i64 %prol.iter, -1
  %prol.iter.cmp = icmp eq i64 %prol.iter.sub, 0
  br i1 %prol.iter.cmp, label %for.body.prol.loopexit, label %for.body.prol, !llvm.loop !124

for.body.prol.loopexit:                           ; preds = %for.body.prol, %for.body.preheader
  %indvars.iv.unr = phi i64 [ %indvars.iv.ph, %for.body.preheader ], [ %indvars.iv.next.prol, %for.body.prol ]
  %60 = icmp ult i64 %57, 3
  br i1 %60, label %for.cond.cleanup, label %for.body

vector.memcheck:                                  ; preds = %for.body.lr.ph
  %scevgep = getelementptr float, float* %49, i64 %53
  %scevgep428 = getelementptr %class.CAmbisonicSource, %class.CAmbisonicSource* %this, i64 0, i32 4
  %scevgep428429 = bitcast float* %scevgep428 to i8*
  %uglygep = getelementptr i8, i8* %scevgep428429, i64 1
  %bound0 = icmp ugt i8* %uglygep, %50
  %bound1 = icmp ult float* %m_fGain, %scevgep
  %found.conflict = and i1 %bound0, %bound1
  br i1 %found.conflict, label %for.body.preheader, label %vector.ph

vector.ph:                                        ; preds = %vector.memcheck
  %n.vec = and i64 %53, 4294967288
  %61 = add nsw i64 %n.vec, -8
  %62 = lshr exact i64 %61, 3
  %63 = add nuw nsw i64 %62, 1
  %xtraiter432 = and i64 %63, 1
  %64 = icmp eq i64 %61, 0
  br i1 %64, label %middle.block.unr-lcssa, label %vector.ph.new

vector.ph.new:                                    ; preds = %vector.ph
  %unroll_iter = sub nuw nsw i64 %63, %xtraiter432
  %65 = load float, float* %m_fGain, align 4, !tbaa !111, !alias.scope !126
  %66 = insertelement <4 x float> undef, float %65, i32 0
  %67 = shufflevector <4 x float> %66, <4 x float> undef, <4 x i32> zeroinitializer
  %68 = insertelement <4 x float> undef, float %65, i32 0
  %69 = shufflevector <4 x float> %68, <4 x float> undef, <4 x i32> zeroinitializer
  %70 = load float, float* %m_fGain, align 4, !tbaa !111, !alias.scope !126
  %71 = insertelement <4 x float> undef, float %70, i32 0
  %72 = shufflevector <4 x float> %71, <4 x float> undef, <4 x i32> zeroinitializer
  %73 = insertelement <4 x float> undef, float %70, i32 0
  %74 = shufflevector <4 x float> %73, <4 x float> undef, <4 x i32> zeroinitializer
  br label %vector.body

vector.body:                                      ; preds = %vector.body, %vector.ph.new
  %index = phi i64 [ 0, %vector.ph.new ], [ %index.next.1, %vector.body ]
  %niter = phi i64 [ %unroll_iter, %vector.ph.new ], [ %niter.nsub.1, %vector.body ]
  %75 = getelementptr inbounds float, float* %49, i64 %index
  %76 = bitcast float* %75 to <4 x float>*
  %wide.load = load <4 x float>, <4 x float>* %76, align 4, !tbaa !83, !alias.scope !129, !noalias !126
  %77 = getelementptr inbounds float, float* %75, i64 4
  %78 = bitcast float* %77 to <4 x float>*
  %wide.load431 = load <4 x float>, <4 x float>* %78, align 4, !tbaa !83, !alias.scope !129, !noalias !126
  %79 = fmul <4 x float> %67, %wide.load
  %80 = fmul <4 x float> %69, %wide.load431
  %81 = bitcast float* %75 to <4 x float>*
  store <4 x float> %79, <4 x float>* %81, align 4, !tbaa !83, !alias.scope !129, !noalias !126
  %82 = bitcast float* %77 to <4 x float>*
  store <4 x float> %80, <4 x float>* %82, align 4, !tbaa !83, !alias.scope !129, !noalias !126
  %index.next = or i64 %index, 8
  %83 = getelementptr inbounds float, float* %49, i64 %index.next
  %84 = bitcast float* %83 to <4 x float>*
  %wide.load.1 = load <4 x float>, <4 x float>* %84, align 4, !tbaa !83, !alias.scope !129, !noalias !126
  %85 = getelementptr inbounds float, float* %83, i64 4
  %86 = bitcast float* %85 to <4 x float>*
  %wide.load431.1 = load <4 x float>, <4 x float>* %86, align 4, !tbaa !83, !alias.scope !129, !noalias !126
  %87 = fmul <4 x float> %72, %wide.load.1
  %88 = fmul <4 x float> %74, %wide.load431.1
  %89 = bitcast float* %83 to <4 x float>*
  store <4 x float> %87, <4 x float>* %89, align 4, !tbaa !83, !alias.scope !129, !noalias !126
  %90 = bitcast float* %85 to <4 x float>*
  store <4 x float> %88, <4 x float>* %90, align 4, !tbaa !83, !alias.scope !129, !noalias !126
  %index.next.1 = add i64 %index, 16
  %niter.nsub.1 = add i64 %niter, -2
  %niter.ncmp.1 = icmp eq i64 %niter.nsub.1, 0
  br i1 %niter.ncmp.1, label %middle.block.unr-lcssa, label %vector.body, !llvm.loop !131

middle.block.unr-lcssa:                           ; preds = %vector.body, %vector.ph
  %index.unr = phi i64 [ 0, %vector.ph ], [ %index.next.1, %vector.body ]
  %lcmp.mod433 = icmp eq i64 %xtraiter432, 0
  br i1 %lcmp.mod433, label %middle.block, label %vector.body.epil

vector.body.epil:                                 ; preds = %middle.block.unr-lcssa
  %91 = load float, float* %m_fGain, align 4, !tbaa !111, !alias.scope !126
  %92 = insertelement <4 x float> undef, float %91, i32 0
  %93 = shufflevector <4 x float> %92, <4 x float> undef, <4 x i32> zeroinitializer
  %94 = insertelement <4 x float> undef, float %91, i32 0
  %95 = shufflevector <4 x float> %94, <4 x float> undef, <4 x i32> zeroinitializer
  %96 = getelementptr inbounds float, float* %49, i64 %index.unr
  %97 = bitcast float* %96 to <4 x float>*
  %wide.load.epil = load <4 x float>, <4 x float>* %97, align 4, !tbaa !83, !alias.scope !129, !noalias !126
  %98 = getelementptr inbounds float, float* %96, i64 4
  %99 = bitcast float* %98 to <4 x float>*
  %wide.load431.epil = load <4 x float>, <4 x float>* %99, align 4, !tbaa !83, !alias.scope !129, !noalias !126
  %100 = fmul <4 x float> %93, %wide.load.epil
  %101 = fmul <4 x float> %95, %wide.load431.epil
  %102 = bitcast float* %96 to <4 x float>*
  store <4 x float> %100, <4 x float>* %102, align 4, !tbaa !83, !alias.scope !129, !noalias !126
  %103 = bitcast float* %98 to <4 x float>*
  store <4 x float> %101, <4 x float>* %103, align 4, !tbaa !83, !alias.scope !129, !noalias !126
  br label %middle.block

middle.block:                                     ; preds = %vector.body.epil, %middle.block.unr-lcssa
  %cmp.n = icmp eq i64 %n.vec, %53
  br i1 %cmp.n, label %for.cond.cleanup, label %for.body.preheader

for.cond.cleanup:                                 ; preds = %for.body, %middle.block, %for.body.prol.loopexit, %if.end277
  ret void

for.body:                                         ; preds = %for.body, %for.body.prol.loopexit
  %indvars.iv = phi i64 [ %indvars.iv.next.3, %for.body ], [ %indvars.iv.unr, %for.body.prol.loopexit ]
  %104 = load float, float* %m_fGain, align 4, !tbaa !111
  %add.ptr.i = getelementptr inbounds float, float* %49, i64 %indvars.iv
  %105 = load float, float* %add.ptr.i, align 4, !tbaa !83
  %mul282 = fmul float %104, %105
  store float %mul282, float* %add.ptr.i, align 4, !tbaa !83
  %indvars.iv.next = add nuw nsw i64 %indvars.iv, 1
  %106 = load float, float* %m_fGain, align 4, !tbaa !111
  %add.ptr.i.1 = getelementptr inbounds float, float* %49, i64 %indvars.iv.next
  %107 = load float, float* %add.ptr.i.1, align 4, !tbaa !83
  %mul282.1 = fmul float %106, %107
  store float %mul282.1, float* %add.ptr.i.1, align 4, !tbaa !83
  %indvars.iv.next.1 = add nuw nsw i64 %indvars.iv, 2
  %108 = load float, float* %m_fGain, align 4, !tbaa !111
  %add.ptr.i.2 = getelementptr inbounds float, float* %49, i64 %indvars.iv.next.1
  %109 = load float, float* %add.ptr.i.2, align 4, !tbaa !83
  %mul282.2 = fmul float %108, %109
  store float %mul282.2, float* %add.ptr.i.2, align 4, !tbaa !83
  %indvars.iv.next.2 = add nuw nsw i64 %indvars.iv, 3
  %110 = load float, float* %m_fGain, align 4, !tbaa !111
  %add.ptr.i.3 = getelementptr inbounds float, float* %49, i64 %indvars.iv.next.2
  %111 = load float, float* %add.ptr.i.3, align 4, !tbaa !83
  %mul282.3 = fmul float %110, %111
  store float %mul282.3, float* %add.ptr.i.3, align 4, !tbaa !83
  %indvars.iv.next.3 = add nuw nsw i64 %indvars.iv, 4
  %cmp278.3 = icmp ult i64 %indvars.iv.next.3, %53
  br i1 %cmp278.3, label %for.body, label %for.cond.cleanup, !prof !132, !llvm.loop !133
}

; Function Attrs: nofree nounwind
declare float @cosf(float) local_unnamed_addr #10

; Function Attrs: nofree nounwind
declare float @sinf(float) local_unnamed_addr #10

; Function Attrs: nofree nounwind
declare double @sqrt(double) local_unnamed_addr #10

; Function Attrs: nofree nounwind
declare float @powf(float, float) local_unnamed_addr #10

; Function Attrs: nofree norecurse nounwind uwtable writeonly
define void @_ZN16CAmbisonicSource11SetPositionE10PolarPoint(%class.CAmbisonicSource* nocapture %this, <2 x float> %polPosition.coerce0, float %polPosition.coerce1) unnamed_addr #11 align 2 !prof !112 {
entry:
  %polPosition.sroa.0.0..sroa_idx = getelementptr inbounds %class.CAmbisonicSource, %class.CAmbisonicSource* %this, i64 0, i32 3
  %polPosition.sroa.0.0..sroa_cast = bitcast %struct.PolarPoint* %polPosition.sroa.0.0..sroa_idx to <2 x float>*
  store <2 x float> %polPosition.coerce0, <2 x float>* %polPosition.sroa.0.0..sroa_cast, align 8
  %polPosition.sroa.2.0..sroa_idx3 = getelementptr inbounds %class.CAmbisonicSource, %class.CAmbisonicSource* %this, i64 0, i32 3, i32 2
  store float %polPosition.coerce1, float* %polPosition.sroa.2.0..sroa_idx3, align 8
  ret void
}

; Function Attrs: argmemonly nounwind
declare void @llvm.memcpy.p0i8.p0i8.i64(i8* nocapture writeonly, i8* nocapture readonly, i64, i1 immarg) #4

; Function Attrs: norecurse nounwind readonly uwtable
define { <2 x float>, float } @_ZN16CAmbisonicSource11GetPositionEv(%class.CAmbisonicSource* nocapture readonly %this) unnamed_addr #6 align 2 !prof !70 {
entry:
  %retval.sroa.0.0..sroa_idx = getelementptr inbounds %class.CAmbisonicSource, %class.CAmbisonicSource* %this, i64 0, i32 3
  %retval.sroa.0.0..sroa_cast = bitcast %struct.PolarPoint* %retval.sroa.0.0..sroa_idx to <2 x float>*
  %retval.sroa.0.0.copyload = load <2 x float>, <2 x float>* %retval.sroa.0.0..sroa_cast, align 8
  %retval.sroa.2.0..sroa_idx3 = getelementptr inbounds %class.CAmbisonicSource, %class.CAmbisonicSource* %this, i64 0, i32 3, i32 2
  %retval.sroa.2.0.copyload = load float, float* %retval.sroa.2.0..sroa_idx3, align 8
  %.fca.0.insert = insertvalue { <2 x float>, float } undef, <2 x float> %retval.sroa.0.0.copyload, 0
  %.fca.1.insert = insertvalue { <2 x float>, float } %.fca.0.insert, float %retval.sroa.2.0.copyload, 1
  ret { <2 x float>, float } %.fca.1.insert
}

; Function Attrs: nofree norecurse nounwind uwtable
define void @_ZN16CAmbisonicSource14SetOrderWeightEjf(%class.CAmbisonicSource* nocapture readonly %this, i32 %nOrder, float %fWeight) unnamed_addr #12 align 2 !prof !103 {
entry:
  %conv = zext i32 %nOrder to i64
  %_M_start.i = getelementptr inbounds %class.CAmbisonicSource, %class.CAmbisonicSource* %this, i64 0, i32 2, i32 0, i32 0, i32 0
  %0 = load float*, float** %_M_start.i, align 8, !tbaa !116
  %add.ptr.i = getelementptr inbounds float, float* %0, i64 %conv
  store float %fWeight, float* %add.ptr.i, align 4, !tbaa !83
  ret void
}

; Function Attrs: nofree norecurse nounwind uwtable
define void @_ZN16CAmbisonicSource17SetOrderWeightAllEf(%class.CAmbisonicSource* nocapture readonly %this, float %fWeight) unnamed_addr #12 align 2 !prof !103 {
entry:
  %0 = getelementptr inbounds %class.CAmbisonicSource, %class.CAmbisonicSource* %this, i64 0, i32 0, i32 1
  %1 = load i32, i32* %0, align 8, !tbaa !97
  %cmp6 = icmp eq i32 %1, -1
  br i1 %cmp6, label %for.cond.cleanup, label %for.body.lr.ph

for.body.lr.ph:                                   ; preds = %entry
  %_M_start.i = getelementptr inbounds %class.CAmbisonicSource, %class.CAmbisonicSource* %this, i64 0, i32 2, i32 0, i32 0, i32 0
  %2 = load float*, float** %_M_start.i, align 8, !tbaa !116
  %add = add nuw i32 %1, 1
  %3 = zext i32 %add to i64
  br label %for.body

for.cond.cleanup:                                 ; preds = %for.body, %entry
  ret void

for.body:                                         ; preds = %for.body, %for.body.lr.ph
  %indvars.iv = phi i64 [ 0, %for.body.lr.ph ], [ %indvars.iv.next, %for.body ]
  %add.ptr.i = getelementptr inbounds float, float* %2, i64 %indvars.iv
  store float %fWeight, float* %add.ptr.i, align 4, !tbaa !83
  %indvars.iv.next = add nuw nsw i64 %indvars.iv, 1
  %cmp = icmp ult i64 %indvars.iv.next, %3
  br i1 %cmp, label %for.body, label %for.cond.cleanup
}

; Function Attrs: nofree norecurse nounwind uwtable
define void @_ZN16CAmbisonicSource14SetCoefficientEjf(%class.CAmbisonicSource* nocapture readonly %this, i32 %nChannel, float %fCoeff) unnamed_addr #12 align 2 !prof !103 {
entry:
  %conv = zext i32 %nChannel to i64
  %_M_start.i = getelementptr inbounds %class.CAmbisonicSource, %class.CAmbisonicSource* %this, i64 0, i32 1, i32 0, i32 0, i32 0
  %0 = load float*, float** %_M_start.i, align 8, !tbaa !116
  %add.ptr.i = getelementptr inbounds float, float* %0, i64 %conv
  store float %fCoeff, float* %add.ptr.i, align 4, !tbaa !83
  ret void
}

; Function Attrs: norecurse nounwind readonly uwtable
define float @_ZN16CAmbisonicSource14GetOrderWeightEj(%class.CAmbisonicSource* nocapture readonly %this, i32 %nOrder) unnamed_addr #6 align 2 !prof !103 {
entry:
  %conv = zext i32 %nOrder to i64
  %_M_start.i = getelementptr inbounds %class.CAmbisonicSource, %class.CAmbisonicSource* %this, i64 0, i32 2, i32 0, i32 0, i32 0
  %0 = load float*, float** %_M_start.i, align 8, !tbaa !116
  %add.ptr.i = getelementptr inbounds float, float* %0, i64 %conv
  %1 = load float, float* %add.ptr.i, align 4, !tbaa !83
  ret float %1
}

; Function Attrs: norecurse nounwind readonly uwtable
define float @_ZN16CAmbisonicSource14GetCoefficientEj(%class.CAmbisonicSource* nocapture readonly %this, i32 %nChannel) unnamed_addr #6 align 2 !prof !134 {
entry:
  %conv = zext i32 %nChannel to i64
  %_M_start.i = getelementptr inbounds %class.CAmbisonicSource, %class.CAmbisonicSource* %this, i64 0, i32 1, i32 0, i32 0, i32 0
  %0 = load float*, float** %_M_start.i, align 8, !tbaa !116
  %add.ptr.i = getelementptr inbounds float, float* %0, i64 %conv
  %1 = load float, float* %add.ptr.i, align 4, !tbaa !83
  ret float %1
}

; Function Attrs: nofree norecurse nounwind uwtable writeonly
define void @_ZN16CAmbisonicSource7SetGainEf(%class.CAmbisonicSource* nocapture %this, float %fGain) unnamed_addr #5 align 2 !prof !135 {
entry:
  %m_fGain = getelementptr inbounds %class.CAmbisonicSource, %class.CAmbisonicSource* %this, i64 0, i32 4
  store float %fGain, float* %m_fGain, align 4, !tbaa !111
  ret void
}

; Function Attrs: norecurse nounwind readonly uwtable
define float @_ZN16CAmbisonicSource7GetGainEv(%class.CAmbisonicSource* nocapture readonly %this) unnamed_addr #6 align 2 !prof !103 {
entry:
  %m_fGain = getelementptr inbounds %class.CAmbisonicSource, %class.CAmbisonicSource* %this, i64 0, i32 4
  %0 = load float, float* %m_fGain, align 4, !tbaa !111
  ret float %0
}

; Function Attrs: nounwind uwtable
define void @_ZN8CBFormatC2Ev(%class.CBFormat* nocapture %this) unnamed_addr #7 align 2 personality i32 (...)* @__gxx_personality_v0 !prof !136 {
entry:
  %0 = getelementptr inbounds %class.CBFormat, %class.CBFormat* %this, i64 0, i32 0, i32 0
  %1 = getelementptr inbounds %class.CBFormat, %class.CBFormat* %this, i64 0, i32 0, i32 1
  store i32 0, i32* %1, align 8, !tbaa !97
  %2 = getelementptr inbounds %class.CBFormat, %class.CBFormat* %this, i64 0, i32 0, i32 2
  store i8 0, i8* %2, align 4, !tbaa !100
  %3 = getelementptr inbounds %class.CBFormat, %class.CBFormat* %this, i64 0, i32 0, i32 4
  store i32 0, i32* %3, align 8, !tbaa !101
  %4 = getelementptr inbounds %class.CBFormat, %class.CBFormat* %this, i64 0, i32 0, i32 5
  store i8 0, i8* %4, align 4, !tbaa !102
  store i32 (...)** bitcast (i8** getelementptr inbounds ({ [7 x i8*] }, { [7 x i8*] }* @_ZTV8CBFormat, i64 0, inrange i32 0, i64 2) to i32 (...)**), i32 (...)*** %0, align 8, !tbaa !68
  %m_nSamples = getelementptr inbounds %class.CBFormat, %class.CBFormat* %this, i64 0, i32 1
  %5 = bitcast i32* %m_nSamples to i8*
  call void @llvm.memset.p0i8.i64(i8* nonnull align 8 %5, i8 0, i64 40, i1 false)
  ret void
}

; Function Attrs: norecurse nounwind readonly uwtable
define i32 @_ZN8CBFormat14GetSampleCountEv(%class.CBFormat* nocapture readonly %this) local_unnamed_addr #6 align 2 !prof !103 {
entry:
  %m_nSamples = getelementptr inbounds %class.CBFormat, %class.CBFormat* %this, i64 0, i32 1
  %0 = load i32, i32* %m_nSamples, align 8, !tbaa !137
  ret i32 %0
}

; Function Attrs: uwtable
define zeroext i1 @_ZN8CBFormat9ConfigureEjbj(%class.CBFormat* %this, i32 %nOrder, i1 zeroext %b3D, i32 %nSampleCount) unnamed_addr #3 align 2 personality i32 (...)* @__gxx_personality_v0 !prof !136 {
entry:
  %frombool.i = zext i1 %b3D to i8
  %0 = getelementptr inbounds %class.CBFormat, %class.CBFormat* %this, i64 0, i32 0, i32 1
  store i32 %nOrder, i32* %0, align 8, !tbaa !97
  %1 = getelementptr inbounds %class.CBFormat, %class.CBFormat* %this, i64 0, i32 0, i32 2
  store i8 %frombool.i, i8* %1, align 4, !tbaa !100
  %call.i = tail call i32 @_Z17OrderToComponentsjb(i32 %nOrder, i1 zeroext %b3D)
  %2 = getelementptr inbounds %class.CBFormat, %class.CBFormat* %this, i64 0, i32 0, i32 4
  store i32 %call.i, i32* %2, align 8, !tbaa !101
  %m_nSamples = getelementptr inbounds %class.CBFormat, %class.CBFormat* %this, i64 0, i32 1
  store i32 %nSampleCount, i32* %m_nSamples, align 8, !tbaa !137
  %mul = mul i32 %call.i, %nSampleCount
  %m_nDataLength = getelementptr inbounds %class.CBFormat, %class.CBFormat* %this, i64 0, i32 2
  store i32 %mul, i32* %m_nDataLength, align 4, !tbaa !141
  %m_pfData = getelementptr inbounds %class.CBFormat, %class.CBFormat* %this, i64 0, i32 3
  %conv = zext i32 %mul to i64
  %_M_finish.i.i = getelementptr inbounds %class.CBFormat, %class.CBFormat* %this, i64 0, i32 3, i32 0, i32 0, i32 1
  %3 = bitcast float** %_M_finish.i.i to i64*
  %4 = load i64, i64* %3, align 8, !tbaa !113
  %5 = bitcast %"class.std::vector.0"* %m_pfData to i64*
  %6 = load i64, i64* %5, align 8, !tbaa !116
  %sub.ptr.sub.i.i = sub i64 %4, %6
  %sub.ptr.div.i.i = ashr exact i64 %sub.ptr.sub.i.i, 2
  %cmp.i = icmp ult i64 %sub.ptr.div.i.i, %conv
  %7 = inttoptr i64 %6 to float*
  %8 = inttoptr i64 %6 to i8*
  br i1 %cmp.i, label %if.then.i, label %if.else.i, !prof !142

if.then.i:                                        ; preds = %entry
  %sub.i = sub nsw i64 %conv, %sub.ptr.div.i.i
  tail call void @_ZNSt6vectorIfSaIfEE17_M_default_appendEm(%"class.std::vector.0"* nonnull %m_pfData, i64 %sub.i)
  %.phi.trans.insert = bitcast %"class.std::vector.0"* %m_pfData to i8**
  %.pre = load i8*, i8** %.phi.trans.insert, align 8, !tbaa !116
  %.pre33 = load i32, i32* %m_nDataLength, align 4, !tbaa !141
  %.pre35 = zext i32 %.pre33 to i64
  br label %_ZNSt6vectorIfSaIfEE6resizeEm.exit

if.else.i:                                        ; preds = %entry
  %cmp4.i = icmp ugt i64 %sub.ptr.div.i.i, %conv
  br i1 %cmp4.i, label %if.then5.i, label %_ZNSt6vectorIfSaIfEE6resizeEm.exit

if.then5.i:                                       ; preds = %if.else.i
  %add.ptr.i = getelementptr inbounds float, float* %7, i64 %conv
  store float* %add.ptr.i, float** %_M_finish.i.i, align 8, !tbaa !113
  br label %_ZNSt6vectorIfSaIfEE6resizeEm.exit

_ZNSt6vectorIfSaIfEE6resizeEm.exit:               ; preds = %if.then5.i, %if.else.i, %if.then.i
  %conv9.pre-phi = phi i64 [ %.pre35, %if.then.i ], [ %conv, %if.else.i ], [ %conv, %if.then5.i ]
  %9 = phi i8* [ %.pre, %if.then.i ], [ %8, %if.else.i ], [ %8, %if.then5.i ]
  %_M_start.i = getelementptr inbounds %"class.std::vector.0", %"class.std::vector.0"* %m_pfData, i64 0, i32 0, i32 0, i32 0
  %mul10 = shl nuw nsw i64 %conv9.pre-phi, 2
  tail call void @llvm.memset.p0i8.i64(i8* align 4 %9, i8 0, i64 %mul10, i1 false)
  %m_ppfChannels = getelementptr inbounds %class.CBFormat, %class.CBFormat* %this, i64 0, i32 4
  %10 = load i32, i32* %2, align 8, !tbaa !101
  %conv12 = zext i32 %10 to i64
  %11 = shl nuw nsw i64 %conv12, 3
  %call13 = tail call i8* @_Znam(i64 %11) #25
  %12 = ptrtoint i8* %call13 to i64
  %13 = bitcast %"class.std::unique_ptr"* %m_ppfChannels to i64*
  %14 = getelementptr inbounds %"class.std::unique_ptr", %"class.std::unique_ptr"* %m_ppfChannels, i64 0, i32 0, i32 0, i32 0, i32 0
  %15 = load float**, float*** %14, align 8, !tbaa !76
  store i64 %12, i64* %13, align 8, !tbaa !76
  %cmp.i30 = icmp eq float** %15, null
  br i1 %cmp.i30, label %_ZNSt10unique_ptrIA_PfSt14default_deleteIS1_EE5resetEPS0_.exit, label %_ZNKSt14default_deleteIA_PfEclEPS0_.exit.i, !prof !143

_ZNKSt14default_deleteIA_PfEclEPS0_.exit.i:       ; preds = %_ZNSt6vectorIfSaIfEE6resizeEm.exit
  %16 = bitcast float** %15 to i8*
  tail call void @_ZdaPv(i8* %16) #26
  %.pre34 = load i32, i32* %2, align 8, !tbaa !101
  br label %_ZNSt10unique_ptrIA_PfSt14default_deleteIS1_EE5resetEPS0_.exit

_ZNSt10unique_ptrIA_PfSt14default_deleteIS1_EE5resetEPS0_.exit: ; preds = %_ZNKSt14default_deleteIA_PfEclEPS0_.exit.i, %_ZNSt6vectorIfSaIfEE6resizeEm.exit
  %17 = phi i32 [ %10, %_ZNSt6vectorIfSaIfEE6resizeEm.exit ], [ %.pre34, %_ZNKSt14default_deleteIA_PfEclEPS0_.exit.i ]
  %cmp31 = icmp eq i32 %17, 0
  br i1 %cmp31, label %cleanup, label %for.body.lr.ph, !prof !144

for.body.lr.ph:                                   ; preds = %_ZNSt10unique_ptrIA_PfSt14default_deleteIS1_EE5resetEPS0_.exit
  %18 = load i32, i32* %m_nSamples, align 8, !tbaa !137
  %19 = zext i32 %17 to i64
  %20 = add nsw i64 %19, -1
  %xtraiter = and i64 %19, 3
  %21 = icmp ult i64 %20, 3
  br i1 %21, label %cleanup.loopexit.unr-lcssa, label %for.body.lr.ph.new

for.body.lr.ph.new:                               ; preds = %for.body.lr.ph
  %unroll_iter = sub nsw i64 %19, %xtraiter
  br label %for.body

for.body:                                         ; preds = %for.body, %for.body.lr.ph.new
  %indvars.iv = phi i64 [ 0, %for.body.lr.ph.new ], [ %indvars.iv.next.3, %for.body ]
  %niter = phi i64 [ %unroll_iter, %for.body.lr.ph.new ], [ %niter.nsub.3, %for.body ]
  %22 = trunc i64 %indvars.iv to i32
  %mul17 = mul i32 %18, %22
  %conv18 = zext i32 %mul17 to i64
  %23 = load float*, float** %_M_start.i, align 8, !tbaa !116
  %add.ptr.i29 = getelementptr inbounds float, float* %23, i64 %conv18
  %24 = load float**, float*** %14, align 8, !tbaa !76
  %arrayidx.i = getelementptr inbounds float*, float** %24, i64 %indvars.iv
  store float* %add.ptr.i29, float** %arrayidx.i, align 8, !tbaa !76
  %indvars.iv.next = or i64 %indvars.iv, 1
  %25 = trunc i64 %indvars.iv.next to i32
  %mul17.1 = mul i32 %18, %25
  %conv18.1 = zext i32 %mul17.1 to i64
  %26 = load float*, float** %_M_start.i, align 8, !tbaa !116
  %add.ptr.i29.1 = getelementptr inbounds float, float* %26, i64 %conv18.1
  %27 = load float**, float*** %14, align 8, !tbaa !76
  %arrayidx.i.1 = getelementptr inbounds float*, float** %27, i64 %indvars.iv.next
  store float* %add.ptr.i29.1, float** %arrayidx.i.1, align 8, !tbaa !76
  %indvars.iv.next.1 = or i64 %indvars.iv, 2
  %28 = trunc i64 %indvars.iv.next.1 to i32
  %mul17.2 = mul i32 %18, %28
  %conv18.2 = zext i32 %mul17.2 to i64
  %29 = load float*, float** %_M_start.i, align 8, !tbaa !116
  %add.ptr.i29.2 = getelementptr inbounds float, float* %29, i64 %conv18.2
  %30 = load float**, float*** %14, align 8, !tbaa !76
  %arrayidx.i.2 = getelementptr inbounds float*, float** %30, i64 %indvars.iv.next.1
  store float* %add.ptr.i29.2, float** %arrayidx.i.2, align 8, !tbaa !76
  %indvars.iv.next.2 = or i64 %indvars.iv, 3
  %31 = trunc i64 %indvars.iv.next.2 to i32
  %mul17.3 = mul i32 %18, %31
  %conv18.3 = zext i32 %mul17.3 to i64
  %32 = load float*, float** %_M_start.i, align 8, !tbaa !116
  %add.ptr.i29.3 = getelementptr inbounds float, float* %32, i64 %conv18.3
  %33 = load float**, float*** %14, align 8, !tbaa !76
  %arrayidx.i.3 = getelementptr inbounds float*, float** %33, i64 %indvars.iv.next.2
  store float* %add.ptr.i29.3, float** %arrayidx.i.3, align 8, !tbaa !76
  %indvars.iv.next.3 = add nuw nsw i64 %indvars.iv, 4
  %niter.nsub.3 = add i64 %niter, -4
  %niter.ncmp.3 = icmp eq i64 %niter.nsub.3, 0
  br i1 %niter.ncmp.3, label %cleanup.loopexit.unr-lcssa, label %for.body, !prof !144

cleanup.loopexit.unr-lcssa:                       ; preds = %for.body, %for.body.lr.ph
  %indvars.iv.unr = phi i64 [ 0, %for.body.lr.ph ], [ %indvars.iv.next.3, %for.body ]
  %lcmp.mod = icmp eq i64 %xtraiter, 0
  br i1 %lcmp.mod, label %cleanup, label %for.body.epil

for.body.epil:                                    ; preds = %for.body.epil, %cleanup.loopexit.unr-lcssa
  %indvars.iv.epil = phi i64 [ %indvars.iv.next.epil, %for.body.epil ], [ %indvars.iv.unr, %cleanup.loopexit.unr-lcssa ]
  %epil.iter = phi i64 [ %epil.iter.sub, %for.body.epil ], [ %xtraiter, %cleanup.loopexit.unr-lcssa ]
  %34 = trunc i64 %indvars.iv.epil to i32
  %mul17.epil = mul i32 %18, %34
  %conv18.epil = zext i32 %mul17.epil to i64
  %35 = load float*, float** %_M_start.i, align 8, !tbaa !116
  %add.ptr.i29.epil = getelementptr inbounds float, float* %35, i64 %conv18.epil
  %36 = load float**, float*** %14, align 8, !tbaa !76
  %arrayidx.i.epil = getelementptr inbounds float*, float** %36, i64 %indvars.iv.epil
  store float* %add.ptr.i29.epil, float** %arrayidx.i.epil, align 8, !tbaa !76
  %indvars.iv.next.epil = add nuw nsw i64 %indvars.iv.epil, 1
  %epil.iter.sub = add i64 %epil.iter, -1
  %epil.iter.cmp = icmp eq i64 %epil.iter.sub, 0
  br i1 %epil.iter.cmp, label %cleanup, label %for.body.epil, !llvm.loop !145

cleanup:                                          ; preds = %for.body.epil, %cleanup.loopexit.unr-lcssa, %_ZNSt10unique_ptrIA_PfSt14default_deleteIS1_EE5resetEPS0_.exit
  ret i1 true
}

; Function Attrs: argmemonly nounwind
declare void @llvm.memset.p0i8.i64(i8* nocapture writeonly, i8, i64, i1 immarg) #4

; Function Attrs: nobuiltin nofree
declare noalias nonnull i8* @_Znam(i64) local_unnamed_addr #13

; Function Attrs: nounwind uwtable
define void @_ZN8CBFormat5ResetEv(%class.CBFormat* nocapture readonly %this) unnamed_addr #7 align 2 personality i32 (...)* @__gxx_personality_v0 !prof !103 {
entry:
  %_M_start.i = getelementptr inbounds %class.CBFormat, %class.CBFormat* %this, i64 0, i32 3, i32 0, i32 0, i32 0
  %0 = bitcast float** %_M_start.i to i8**
  %1 = load i8*, i8** %0, align 8, !tbaa !116
  %m_nDataLength = getelementptr inbounds %class.CBFormat, %class.CBFormat* %this, i64 0, i32 2
  %2 = load i32, i32* %m_nDataLength, align 4, !tbaa !141
  %conv = zext i32 %2 to i64
  %mul = shl nuw nsw i64 %conv, 2
  tail call void @llvm.memset.p0i8.i64(i8* align 4 %1, i8 0, i64 %mul, i1 false)
  ret void
}

; Function Attrs: norecurse nounwind readnone uwtable
define void @_ZN8CBFormat7RefreshEv(%class.CBFormat* nocapture %this) unnamed_addr #8 align 2 !prof !146 {
entry:
  ret void
}

; Function Attrs: nounwind uwtable
define void @_ZN8CBFormat12InsertStreamEPfjj(%class.CBFormat* nocapture readonly %this, float* nocapture readonly %pfData, i32 %nChannel, i32 %nSamples) local_unnamed_addr #7 align 2 !prof !103 {
entry:
  %conv = zext i32 %nChannel to i64
  %_M_head_impl.i.i.i.i.i.i = getelementptr inbounds %class.CBFormat, %class.CBFormat* %this, i64 0, i32 4, i32 0, i32 0, i32 0, i32 0
  %0 = load float**, float*** %_M_head_impl.i.i.i.i.i.i, align 8, !tbaa !76
  %arrayidx.i = getelementptr inbounds float*, float** %0, i64 %conv
  %1 = bitcast float** %arrayidx.i to i8**
  %2 = load i8*, i8** %1, align 8, !tbaa !76
  %3 = bitcast float* %pfData to i8*
  %conv2 = zext i32 %nSamples to i64
  %mul = shl nuw nsw i64 %conv2, 2
  tail call void @llvm.memcpy.p0i8.p0i8.i64(i8* align 4 %2, i8* align 4 %3, i64 %mul, i1 false)
  ret void
}

; Function Attrs: nounwind uwtable
define void @_ZN8CBFormat13ExtractStreamEPfjj(%class.CBFormat* nocapture readonly %this, float* nocapture %pfData, i32 %nChannel, i32 %nSamples) local_unnamed_addr #7 align 2 !prof !103 {
entry:
  %0 = bitcast float* %pfData to i8*
  %conv = zext i32 %nChannel to i64
  %_M_head_impl.i.i.i.i.i.i = getelementptr inbounds %class.CBFormat, %class.CBFormat* %this, i64 0, i32 4, i32 0, i32 0, i32 0, i32 0
  %1 = load float**, float*** %_M_head_impl.i.i.i.i.i.i, align 8, !tbaa !76
  %arrayidx.i = getelementptr inbounds float*, float** %1, i64 %conv
  %2 = bitcast float** %arrayidx.i to i8**
  %3 = load i8*, i8** %2, align 8, !tbaa !76
  %conv2 = zext i32 %nSamples to i64
  %mul = shl nuw nsw i64 %conv2, 2
  tail call void @llvm.memcpy.p0i8.p0i8.i64(i8* align 4 %0, i8* align 4 %3, i64 %mul, i1 false)
  ret void
}

; Function Attrs: nounwind uwtable
define void @_ZN8CBFormataSERKS_(%class.CBFormat* nocapture readonly %this, %class.CBFormat* nocapture readonly dereferenceable(64) %bf) local_unnamed_addr #7 align 2 personality i32 (...)* @__gxx_personality_v0 !prof !103 {
entry:
  %_M_start.i = getelementptr inbounds %class.CBFormat, %class.CBFormat* %this, i64 0, i32 3, i32 0, i32 0, i32 0
  %0 = bitcast float** %_M_start.i to i8**
  %1 = load i8*, i8** %0, align 8, !tbaa !116
  %_M_start.i4 = getelementptr inbounds %class.CBFormat, %class.CBFormat* %bf, i64 0, i32 3, i32 0, i32 0, i32 0
  %2 = bitcast float** %_M_start.i4 to i8**
  %3 = load i8*, i8** %2, align 8, !tbaa !116
  %m_nDataLength = getelementptr inbounds %class.CBFormat, %class.CBFormat* %this, i64 0, i32 2
  %4 = load i32, i32* %m_nDataLength, align 4, !tbaa !141
  %conv = zext i32 %4 to i64
  %mul = shl nuw nsw i64 %conv, 2
  tail call void @llvm.memcpy.p0i8.p0i8.i64(i8* align 4 %1, i8* align 4 %3, i64 %mul, i1 false)
  ret void
}

; Function Attrs: norecurse nounwind readonly uwtable
define zeroext i1 @_ZN8CBFormateqERKS_(%class.CBFormat* nocapture readonly %this, %class.CBFormat* nocapture readonly dereferenceable(64) %bf) local_unnamed_addr #6 align 2 !prof !103 {
entry:
  %0 = getelementptr inbounds %class.CBFormat, %class.CBFormat* %this, i64 0, i32 0, i32 2
  %1 = load i8, i8* %0, align 4, !tbaa !100, !range !104
  %2 = getelementptr inbounds %class.CBFormat, %class.CBFormat* %bf, i64 0, i32 0, i32 2
  %3 = load i8, i8* %2, align 4, !tbaa !100, !range !104
  %cmp = icmp eq i8 %1, %3
  br i1 %cmp, label %land.lhs.true, label %if.else

land.lhs.true:                                    ; preds = %entry
  %4 = getelementptr inbounds %class.CBFormat, %class.CBFormat* %this, i64 0, i32 0, i32 1
  %5 = load i32, i32* %4, align 8, !tbaa !97
  %6 = getelementptr inbounds %class.CBFormat, %class.CBFormat* %bf, i64 0, i32 0, i32 1
  %7 = load i32, i32* %6, align 8, !tbaa !97
  %cmp6 = icmp eq i32 %5, %7
  br i1 %cmp6, label %land.lhs.true7, label %if.else

land.lhs.true7:                                   ; preds = %land.lhs.true
  %m_nDataLength = getelementptr inbounds %class.CBFormat, %class.CBFormat* %this, i64 0, i32 2
  %8 = load i32, i32* %m_nDataLength, align 4, !tbaa !141
  %m_nDataLength8 = getelementptr inbounds %class.CBFormat, %class.CBFormat* %bf, i64 0, i32 2
  %9 = load i32, i32* %m_nDataLength8, align 4, !tbaa !141
  %cmp9 = icmp eq i32 %8, %9
  br i1 %cmp9, label %return, label %if.else

if.else:                                          ; preds = %land.lhs.true7, %land.lhs.true, %entry
  br label %return

return:                                           ; preds = %if.else, %land.lhs.true7
  %retval.0 = phi i1 [ false, %if.else ], [ true, %land.lhs.true7 ]
  ret i1 %retval.0
}

; Function Attrs: norecurse nounwind readonly uwtable
define zeroext i1 @_ZN8CBFormatneERKS_(%class.CBFormat* nocapture readonly %this, %class.CBFormat* nocapture readonly dereferenceable(64) %bf) local_unnamed_addr #6 align 2 !prof !103 {
entry:
  %0 = getelementptr inbounds %class.CBFormat, %class.CBFormat* %this, i64 0, i32 0, i32 2
  %1 = load i8, i8* %0, align 4, !tbaa !100, !range !104
  %2 = getelementptr inbounds %class.CBFormat, %class.CBFormat* %bf, i64 0, i32 0, i32 2
  %3 = load i8, i8* %2, align 4, !tbaa !100, !range !104
  %cmp = icmp eq i8 %1, %3
  br i1 %cmp, label %lor.lhs.false, label %return

lor.lhs.false:                                    ; preds = %entry
  %4 = getelementptr inbounds %class.CBFormat, %class.CBFormat* %this, i64 0, i32 0, i32 1
  %5 = load i32, i32* %4, align 8, !tbaa !97
  %6 = getelementptr inbounds %class.CBFormat, %class.CBFormat* %bf, i64 0, i32 0, i32 1
  %7 = load i32, i32* %6, align 8, !tbaa !97
  %cmp6 = icmp eq i32 %5, %7
  br i1 %cmp6, label %lor.lhs.false7, label %return

lor.lhs.false7:                                   ; preds = %lor.lhs.false
  %m_nDataLength = getelementptr inbounds %class.CBFormat, %class.CBFormat* %this, i64 0, i32 2
  %8 = load i32, i32* %m_nDataLength, align 4, !tbaa !141
  %m_nDataLength8 = getelementptr inbounds %class.CBFormat, %class.CBFormat* %bf, i64 0, i32 2
  %9 = load i32, i32* %m_nDataLength8, align 4, !tbaa !141
  %cmp9 = icmp ne i32 %8, %9
  ret i1 %cmp9

return:                                           ; preds = %lor.lhs.false, %entry
  ret i1 true
}

; Function Attrs: nofree norecurse nounwind uwtable
define dereferenceable(64) %class.CBFormat* @_ZN8CBFormatpLERKS_(%class.CBFormat* readonly returned %this, %class.CBFormat* nocapture readonly dereferenceable(64) %bf) local_unnamed_addr #12 align 2 !prof !103 {
entry:
  %0 = getelementptr inbounds %class.CBFormat, %class.CBFormat* %this, i64 0, i32 0, i32 4
  %1 = load i32, i32* %0, align 8, !tbaa !101
  %cmp25 = icmp eq i32 %1, 0
  br i1 %cmp25, label %for.end12, label %for.cond2.preheader.lr.ph

for.cond2.preheader.lr.ph:                        ; preds = %entry
  %m_nSamples = getelementptr inbounds %class.CBFormat, %class.CBFormat* %this, i64 0, i32 1
  %2 = load i32, i32* %m_nSamples, align 8, !tbaa !137
  %cmp323 = icmp eq i32 %2, 0
  %_M_head_impl.i.i.i.i.i.i = getelementptr inbounds %class.CBFormat, %class.CBFormat* %bf, i64 0, i32 4, i32 0, i32 0, i32 0, i32 0
  %3 = load float**, float*** %_M_head_impl.i.i.i.i.i.i, align 8
  br i1 %cmp323, label %for.end12, label %for.cond2.preheader.us.preheader

for.cond2.preheader.us.preheader:                 ; preds = %for.cond2.preheader.lr.ph
  %_M_head_impl.i.i.i.i.i.i21 = getelementptr inbounds %class.CBFormat, %class.CBFormat* %this, i64 0, i32 4, i32 0, i32 0, i32 0, i32 0
  %4 = zext i32 %1 to i64
  %.pre = load float**, float*** %_M_head_impl.i.i.i.i.i.i21, align 8, !tbaa !76
  %5 = zext i32 %2 to i64
  %6 = add nsw i64 %5, -1
  %xtraiter = and i64 %5, 3
  %7 = icmp ult i64 %6, 3
  %unroll_iter = sub nsw i64 %5, %xtraiter
  %lcmp.mod = icmp eq i64 %xtraiter, 0
  br label %for.cond2.preheader.us

for.cond2.preheader.us:                           ; preds = %for.cond2.for.inc10_crit_edge.us, %for.cond2.preheader.us.preheader
  %indvars.iv29 = phi i64 [ 0, %for.cond2.preheader.us.preheader ], [ %indvars.iv.next30, %for.cond2.for.inc10_crit_edge.us ]
  %arrayidx.i.us = getelementptr inbounds float*, float** %3, i64 %indvars.iv29
  %8 = load float*, float** %arrayidx.i.us, align 8, !tbaa !76
  %arrayidx.i22.us = getelementptr inbounds float*, float** %.pre, i64 %indvars.iv29
  %9 = load float*, float** %arrayidx.i22.us, align 8, !tbaa !76
  br i1 %7, label %for.cond2.for.inc10_crit_edge.us.unr-lcssa, label %for.body4.us

for.body4.us:                                     ; preds = %for.body4.us, %for.cond2.preheader.us
  %indvars.iv = phi i64 [ %indvars.iv.next.3, %for.body4.us ], [ 0, %for.cond2.preheader.us ]
  %niter = phi i64 [ %niter.nsub.3, %for.body4.us ], [ %unroll_iter, %for.cond2.preheader.us ]
  %arrayidx.us = getelementptr inbounds float, float* %8, i64 %indvars.iv
  %10 = load float, float* %arrayidx.us, align 4, !tbaa !83
  %arrayidx9.us = getelementptr inbounds float, float* %9, i64 %indvars.iv
  %11 = load float, float* %arrayidx9.us, align 4, !tbaa !83
  %add.us = fadd float %10, %11
  store float %add.us, float* %arrayidx9.us, align 4, !tbaa !83
  %indvars.iv.next = or i64 %indvars.iv, 1
  %arrayidx.us.1 = getelementptr inbounds float, float* %8, i64 %indvars.iv.next
  %12 = load float, float* %arrayidx.us.1, align 4, !tbaa !83
  %arrayidx9.us.1 = getelementptr inbounds float, float* %9, i64 %indvars.iv.next
  %13 = load float, float* %arrayidx9.us.1, align 4, !tbaa !83
  %add.us.1 = fadd float %12, %13
  store float %add.us.1, float* %arrayidx9.us.1, align 4, !tbaa !83
  %indvars.iv.next.1 = or i64 %indvars.iv, 2
  %arrayidx.us.2 = getelementptr inbounds float, float* %8, i64 %indvars.iv.next.1
  %14 = load float, float* %arrayidx.us.2, align 4, !tbaa !83
  %arrayidx9.us.2 = getelementptr inbounds float, float* %9, i64 %indvars.iv.next.1
  %15 = load float, float* %arrayidx9.us.2, align 4, !tbaa !83
  %add.us.2 = fadd float %14, %15
  store float %add.us.2, float* %arrayidx9.us.2, align 4, !tbaa !83
  %indvars.iv.next.2 = or i64 %indvars.iv, 3
  %arrayidx.us.3 = getelementptr inbounds float, float* %8, i64 %indvars.iv.next.2
  %16 = load float, float* %arrayidx.us.3, align 4, !tbaa !83
  %arrayidx9.us.3 = getelementptr inbounds float, float* %9, i64 %indvars.iv.next.2
  %17 = load float, float* %arrayidx9.us.3, align 4, !tbaa !83
  %add.us.3 = fadd float %16, %17
  store float %add.us.3, float* %arrayidx9.us.3, align 4, !tbaa !83
  %indvars.iv.next.3 = add nuw nsw i64 %indvars.iv, 4
  %niter.nsub.3 = add i64 %niter, -4
  %niter.ncmp.3 = icmp eq i64 %niter.nsub.3, 0
  br i1 %niter.ncmp.3, label %for.cond2.for.inc10_crit_edge.us.unr-lcssa, label %for.body4.us

for.cond2.for.inc10_crit_edge.us.unr-lcssa:       ; preds = %for.body4.us, %for.cond2.preheader.us
  %indvars.iv.unr = phi i64 [ 0, %for.cond2.preheader.us ], [ %indvars.iv.next.3, %for.body4.us ]
  br i1 %lcmp.mod, label %for.cond2.for.inc10_crit_edge.us, label %for.body4.us.epil

for.body4.us.epil:                                ; preds = %for.body4.us.epil, %for.cond2.for.inc10_crit_edge.us.unr-lcssa
  %indvars.iv.epil = phi i64 [ %indvars.iv.next.epil, %for.body4.us.epil ], [ %indvars.iv.unr, %for.cond2.for.inc10_crit_edge.us.unr-lcssa ]
  %epil.iter = phi i64 [ %epil.iter.sub, %for.body4.us.epil ], [ %xtraiter, %for.cond2.for.inc10_crit_edge.us.unr-lcssa ]
  %arrayidx.us.epil = getelementptr inbounds float, float* %8, i64 %indvars.iv.epil
  %18 = load float, float* %arrayidx.us.epil, align 4, !tbaa !83
  %arrayidx9.us.epil = getelementptr inbounds float, float* %9, i64 %indvars.iv.epil
  %19 = load float, float* %arrayidx9.us.epil, align 4, !tbaa !83
  %add.us.epil = fadd float %18, %19
  store float %add.us.epil, float* %arrayidx9.us.epil, align 4, !tbaa !83
  %indvars.iv.next.epil = add nuw nsw i64 %indvars.iv.epil, 1
  %epil.iter.sub = add i64 %epil.iter, -1
  %epil.iter.cmp = icmp eq i64 %epil.iter.sub, 0
  br i1 %epil.iter.cmp, label %for.cond2.for.inc10_crit_edge.us, label %for.body4.us.epil, !llvm.loop !147

for.cond2.for.inc10_crit_edge.us:                 ; preds = %for.body4.us.epil, %for.cond2.for.inc10_crit_edge.us.unr-lcssa
  %indvars.iv.next30 = add nuw nsw i64 %indvars.iv29, 1
  %cmp.us = icmp ult i64 %indvars.iv.next30, %4
  br i1 %cmp.us, label %for.cond2.preheader.us, label %for.end12

for.end12:                                        ; preds = %for.cond2.for.inc10_crit_edge.us, %for.cond2.preheader.lr.ph, %entry
  ret %class.CBFormat* %this
}

; Function Attrs: nofree norecurse nounwind uwtable
define dereferenceable(64) %class.CBFormat* @_ZN8CBFormatmIERKS_(%class.CBFormat* readonly returned %this, %class.CBFormat* nocapture readonly dereferenceable(64) %bf) local_unnamed_addr #12 align 2 !prof !103 {
entry:
  %0 = getelementptr inbounds %class.CBFormat, %class.CBFormat* %this, i64 0, i32 0, i32 4
  %1 = load i32, i32* %0, align 8, !tbaa !101
  %cmp25 = icmp eq i32 %1, 0
  br i1 %cmp25, label %for.end12, label %for.cond2.preheader.lr.ph

for.cond2.preheader.lr.ph:                        ; preds = %entry
  %m_nSamples = getelementptr inbounds %class.CBFormat, %class.CBFormat* %this, i64 0, i32 1
  %2 = load i32, i32* %m_nSamples, align 8, !tbaa !137
  %cmp323 = icmp eq i32 %2, 0
  %_M_head_impl.i.i.i.i.i.i = getelementptr inbounds %class.CBFormat, %class.CBFormat* %bf, i64 0, i32 4, i32 0, i32 0, i32 0, i32 0
  %3 = load float**, float*** %_M_head_impl.i.i.i.i.i.i, align 8
  br i1 %cmp323, label %for.end12, label %for.cond2.preheader.us.preheader

for.cond2.preheader.us.preheader:                 ; preds = %for.cond2.preheader.lr.ph
  %_M_head_impl.i.i.i.i.i.i21 = getelementptr inbounds %class.CBFormat, %class.CBFormat* %this, i64 0, i32 4, i32 0, i32 0, i32 0, i32 0
  %4 = zext i32 %1 to i64
  %.pre = load float**, float*** %_M_head_impl.i.i.i.i.i.i21, align 8, !tbaa !76
  %5 = zext i32 %2 to i64
  %6 = add nsw i64 %5, -1
  %xtraiter = and i64 %5, 3
  %7 = icmp ult i64 %6, 3
  %unroll_iter = sub nsw i64 %5, %xtraiter
  %lcmp.mod = icmp eq i64 %xtraiter, 0
  br label %for.cond2.preheader.us

for.cond2.preheader.us:                           ; preds = %for.cond2.for.inc10_crit_edge.us, %for.cond2.preheader.us.preheader
  %indvars.iv29 = phi i64 [ 0, %for.cond2.preheader.us.preheader ], [ %indvars.iv.next30, %for.cond2.for.inc10_crit_edge.us ]
  %arrayidx.i.us = getelementptr inbounds float*, float** %3, i64 %indvars.iv29
  %8 = load float*, float** %arrayidx.i.us, align 8, !tbaa !76
  %arrayidx.i22.us = getelementptr inbounds float*, float** %.pre, i64 %indvars.iv29
  %9 = load float*, float** %arrayidx.i22.us, align 8, !tbaa !76
  br i1 %7, label %for.cond2.for.inc10_crit_edge.us.unr-lcssa, label %for.body4.us

for.body4.us:                                     ; preds = %for.body4.us, %for.cond2.preheader.us
  %indvars.iv = phi i64 [ %indvars.iv.next.3, %for.body4.us ], [ 0, %for.cond2.preheader.us ]
  %niter = phi i64 [ %niter.nsub.3, %for.body4.us ], [ %unroll_iter, %for.cond2.preheader.us ]
  %arrayidx.us = getelementptr inbounds float, float* %8, i64 %indvars.iv
  %10 = load float, float* %arrayidx.us, align 4, !tbaa !83
  %arrayidx9.us = getelementptr inbounds float, float* %9, i64 %indvars.iv
  %11 = load float, float* %arrayidx9.us, align 4, !tbaa !83
  %sub.us = fsub float %11, %10
  store float %sub.us, float* %arrayidx9.us, align 4, !tbaa !83
  %indvars.iv.next = or i64 %indvars.iv, 1
  %arrayidx.us.1 = getelementptr inbounds float, float* %8, i64 %indvars.iv.next
  %12 = load float, float* %arrayidx.us.1, align 4, !tbaa !83
  %arrayidx9.us.1 = getelementptr inbounds float, float* %9, i64 %indvars.iv.next
  %13 = load float, float* %arrayidx9.us.1, align 4, !tbaa !83
  %sub.us.1 = fsub float %13, %12
  store float %sub.us.1, float* %arrayidx9.us.1, align 4, !tbaa !83
  %indvars.iv.next.1 = or i64 %indvars.iv, 2
  %arrayidx.us.2 = getelementptr inbounds float, float* %8, i64 %indvars.iv.next.1
  %14 = load float, float* %arrayidx.us.2, align 4, !tbaa !83
  %arrayidx9.us.2 = getelementptr inbounds float, float* %9, i64 %indvars.iv.next.1
  %15 = load float, float* %arrayidx9.us.2, align 4, !tbaa !83
  %sub.us.2 = fsub float %15, %14
  store float %sub.us.2, float* %arrayidx9.us.2, align 4, !tbaa !83
  %indvars.iv.next.2 = or i64 %indvars.iv, 3
  %arrayidx.us.3 = getelementptr inbounds float, float* %8, i64 %indvars.iv.next.2
  %16 = load float, float* %arrayidx.us.3, align 4, !tbaa !83
  %arrayidx9.us.3 = getelementptr inbounds float, float* %9, i64 %indvars.iv.next.2
  %17 = load float, float* %arrayidx9.us.3, align 4, !tbaa !83
  %sub.us.3 = fsub float %17, %16
  store float %sub.us.3, float* %arrayidx9.us.3, align 4, !tbaa !83
  %indvars.iv.next.3 = add nuw nsw i64 %indvars.iv, 4
  %niter.nsub.3 = add i64 %niter, -4
  %niter.ncmp.3 = icmp eq i64 %niter.nsub.3, 0
  br i1 %niter.ncmp.3, label %for.cond2.for.inc10_crit_edge.us.unr-lcssa, label %for.body4.us

for.cond2.for.inc10_crit_edge.us.unr-lcssa:       ; preds = %for.body4.us, %for.cond2.preheader.us
  %indvars.iv.unr = phi i64 [ 0, %for.cond2.preheader.us ], [ %indvars.iv.next.3, %for.body4.us ]
  br i1 %lcmp.mod, label %for.cond2.for.inc10_crit_edge.us, label %for.body4.us.epil

for.body4.us.epil:                                ; preds = %for.body4.us.epil, %for.cond2.for.inc10_crit_edge.us.unr-lcssa
  %indvars.iv.epil = phi i64 [ %indvars.iv.next.epil, %for.body4.us.epil ], [ %indvars.iv.unr, %for.cond2.for.inc10_crit_edge.us.unr-lcssa ]
  %epil.iter = phi i64 [ %epil.iter.sub, %for.body4.us.epil ], [ %xtraiter, %for.cond2.for.inc10_crit_edge.us.unr-lcssa ]
  %arrayidx.us.epil = getelementptr inbounds float, float* %8, i64 %indvars.iv.epil
  %18 = load float, float* %arrayidx.us.epil, align 4, !tbaa !83
  %arrayidx9.us.epil = getelementptr inbounds float, float* %9, i64 %indvars.iv.epil
  %19 = load float, float* %arrayidx9.us.epil, align 4, !tbaa !83
  %sub.us.epil = fsub float %19, %18
  store float %sub.us.epil, float* %arrayidx9.us.epil, align 4, !tbaa !83
  %indvars.iv.next.epil = add nuw nsw i64 %indvars.iv.epil, 1
  %epil.iter.sub = add i64 %epil.iter, -1
  %epil.iter.cmp = icmp eq i64 %epil.iter.sub, 0
  br i1 %epil.iter.cmp, label %for.cond2.for.inc10_crit_edge.us, label %for.body4.us.epil, !llvm.loop !148

for.cond2.for.inc10_crit_edge.us:                 ; preds = %for.body4.us.epil, %for.cond2.for.inc10_crit_edge.us.unr-lcssa
  %indvars.iv.next30 = add nuw nsw i64 %indvars.iv29, 1
  %cmp.us = icmp ult i64 %indvars.iv.next30, %4
  br i1 %cmp.us, label %for.cond2.preheader.us, label %for.end12

for.end12:                                        ; preds = %for.cond2.for.inc10_crit_edge.us, %for.cond2.preheader.lr.ph, %entry
  ret %class.CBFormat* %this
}

; Function Attrs: nofree norecurse nounwind uwtable
define dereferenceable(64) %class.CBFormat* @_ZN8CBFormatmLERKS_(%class.CBFormat* readonly returned %this, %class.CBFormat* nocapture readonly dereferenceable(64) %bf) local_unnamed_addr #12 align 2 !prof !103 {
entry:
  %0 = getelementptr inbounds %class.CBFormat, %class.CBFormat* %this, i64 0, i32 0, i32 4
  %1 = load i32, i32* %0, align 8, !tbaa !101
  %cmp25 = icmp eq i32 %1, 0
  br i1 %cmp25, label %for.end12, label %for.cond2.preheader.lr.ph

for.cond2.preheader.lr.ph:                        ; preds = %entry
  %m_nSamples = getelementptr inbounds %class.CBFormat, %class.CBFormat* %this, i64 0, i32 1
  %2 = load i32, i32* %m_nSamples, align 8, !tbaa !137
  %cmp323 = icmp eq i32 %2, 0
  %_M_head_impl.i.i.i.i.i.i = getelementptr inbounds %class.CBFormat, %class.CBFormat* %bf, i64 0, i32 4, i32 0, i32 0, i32 0, i32 0
  %3 = load float**, float*** %_M_head_impl.i.i.i.i.i.i, align 8
  br i1 %cmp323, label %for.end12, label %for.cond2.preheader.us.preheader

for.cond2.preheader.us.preheader:                 ; preds = %for.cond2.preheader.lr.ph
  %_M_head_impl.i.i.i.i.i.i21 = getelementptr inbounds %class.CBFormat, %class.CBFormat* %this, i64 0, i32 4, i32 0, i32 0, i32 0, i32 0
  %4 = zext i32 %1 to i64
  %.pre = load float**, float*** %_M_head_impl.i.i.i.i.i.i21, align 8, !tbaa !76
  %5 = zext i32 %2 to i64
  %6 = add nsw i64 %5, -1
  %xtraiter = and i64 %5, 3
  %7 = icmp ult i64 %6, 3
  %unroll_iter = sub nsw i64 %5, %xtraiter
  %lcmp.mod = icmp eq i64 %xtraiter, 0
  br label %for.cond2.preheader.us

for.cond2.preheader.us:                           ; preds = %for.cond2.for.inc10_crit_edge.us, %for.cond2.preheader.us.preheader
  %indvars.iv29 = phi i64 [ 0, %for.cond2.preheader.us.preheader ], [ %indvars.iv.next30, %for.cond2.for.inc10_crit_edge.us ]
  %arrayidx.i.us = getelementptr inbounds float*, float** %3, i64 %indvars.iv29
  %8 = load float*, float** %arrayidx.i.us, align 8, !tbaa !76
  %arrayidx.i22.us = getelementptr inbounds float*, float** %.pre, i64 %indvars.iv29
  %9 = load float*, float** %arrayidx.i22.us, align 8, !tbaa !76
  br i1 %7, label %for.cond2.for.inc10_crit_edge.us.unr-lcssa, label %for.body4.us

for.body4.us:                                     ; preds = %for.body4.us, %for.cond2.preheader.us
  %indvars.iv = phi i64 [ %indvars.iv.next.3, %for.body4.us ], [ 0, %for.cond2.preheader.us ]
  %niter = phi i64 [ %niter.nsub.3, %for.body4.us ], [ %unroll_iter, %for.cond2.preheader.us ]
  %arrayidx.us = getelementptr inbounds float, float* %8, i64 %indvars.iv
  %10 = load float, float* %arrayidx.us, align 4, !tbaa !83
  %arrayidx9.us = getelementptr inbounds float, float* %9, i64 %indvars.iv
  %11 = load float, float* %arrayidx9.us, align 4, !tbaa !83
  %mul.us = fmul float %10, %11
  store float %mul.us, float* %arrayidx9.us, align 4, !tbaa !83
  %indvars.iv.next = or i64 %indvars.iv, 1
  %arrayidx.us.1 = getelementptr inbounds float, float* %8, i64 %indvars.iv.next
  %12 = load float, float* %arrayidx.us.1, align 4, !tbaa !83
  %arrayidx9.us.1 = getelementptr inbounds float, float* %9, i64 %indvars.iv.next
  %13 = load float, float* %arrayidx9.us.1, align 4, !tbaa !83
  %mul.us.1 = fmul float %12, %13
  store float %mul.us.1, float* %arrayidx9.us.1, align 4, !tbaa !83
  %indvars.iv.next.1 = or i64 %indvars.iv, 2
  %arrayidx.us.2 = getelementptr inbounds float, float* %8, i64 %indvars.iv.next.1
  %14 = load float, float* %arrayidx.us.2, align 4, !tbaa !83
  %arrayidx9.us.2 = getelementptr inbounds float, float* %9, i64 %indvars.iv.next.1
  %15 = load float, float* %arrayidx9.us.2, align 4, !tbaa !83
  %mul.us.2 = fmul float %14, %15
  store float %mul.us.2, float* %arrayidx9.us.2, align 4, !tbaa !83
  %indvars.iv.next.2 = or i64 %indvars.iv, 3
  %arrayidx.us.3 = getelementptr inbounds float, float* %8, i64 %indvars.iv.next.2
  %16 = load float, float* %arrayidx.us.3, align 4, !tbaa !83
  %arrayidx9.us.3 = getelementptr inbounds float, float* %9, i64 %indvars.iv.next.2
  %17 = load float, float* %arrayidx9.us.3, align 4, !tbaa !83
  %mul.us.3 = fmul float %16, %17
  store float %mul.us.3, float* %arrayidx9.us.3, align 4, !tbaa !83
  %indvars.iv.next.3 = add nuw nsw i64 %indvars.iv, 4
  %niter.nsub.3 = add i64 %niter, -4
  %niter.ncmp.3 = icmp eq i64 %niter.nsub.3, 0
  br i1 %niter.ncmp.3, label %for.cond2.for.inc10_crit_edge.us.unr-lcssa, label %for.body4.us

for.cond2.for.inc10_crit_edge.us.unr-lcssa:       ; preds = %for.body4.us, %for.cond2.preheader.us
  %indvars.iv.unr = phi i64 [ 0, %for.cond2.preheader.us ], [ %indvars.iv.next.3, %for.body4.us ]
  br i1 %lcmp.mod, label %for.cond2.for.inc10_crit_edge.us, label %for.body4.us.epil

for.body4.us.epil:                                ; preds = %for.body4.us.epil, %for.cond2.for.inc10_crit_edge.us.unr-lcssa
  %indvars.iv.epil = phi i64 [ %indvars.iv.next.epil, %for.body4.us.epil ], [ %indvars.iv.unr, %for.cond2.for.inc10_crit_edge.us.unr-lcssa ]
  %epil.iter = phi i64 [ %epil.iter.sub, %for.body4.us.epil ], [ %xtraiter, %for.cond2.for.inc10_crit_edge.us.unr-lcssa ]
  %arrayidx.us.epil = getelementptr inbounds float, float* %8, i64 %indvars.iv.epil
  %18 = load float, float* %arrayidx.us.epil, align 4, !tbaa !83
  %arrayidx9.us.epil = getelementptr inbounds float, float* %9, i64 %indvars.iv.epil
  %19 = load float, float* %arrayidx9.us.epil, align 4, !tbaa !83
  %mul.us.epil = fmul float %18, %19
  store float %mul.us.epil, float* %arrayidx9.us.epil, align 4, !tbaa !83
  %indvars.iv.next.epil = add nuw nsw i64 %indvars.iv.epil, 1
  %epil.iter.sub = add i64 %epil.iter, -1
  %epil.iter.cmp = icmp eq i64 %epil.iter.sub, 0
  br i1 %epil.iter.cmp, label %for.cond2.for.inc10_crit_edge.us, label %for.body4.us.epil, !llvm.loop !149

for.cond2.for.inc10_crit_edge.us:                 ; preds = %for.body4.us.epil, %for.cond2.for.inc10_crit_edge.us.unr-lcssa
  %indvars.iv.next30 = add nuw nsw i64 %indvars.iv29, 1
  %cmp.us = icmp ult i64 %indvars.iv.next30, %4
  br i1 %cmp.us, label %for.cond2.preheader.us, label %for.end12

for.end12:                                        ; preds = %for.cond2.for.inc10_crit_edge.us, %for.cond2.preheader.lr.ph, %entry
  ret %class.CBFormat* %this
}

; Function Attrs: nofree norecurse nounwind uwtable
define dereferenceable(64) %class.CBFormat* @_ZN8CBFormatdVERKS_(%class.CBFormat* readonly returned %this, %class.CBFormat* nocapture readonly dereferenceable(64) %bf) local_unnamed_addr #12 align 2 !prof !103 {
entry:
  %0 = getelementptr inbounds %class.CBFormat, %class.CBFormat* %this, i64 0, i32 0, i32 4
  %1 = load i32, i32* %0, align 8, !tbaa !101
  %cmp25 = icmp eq i32 %1, 0
  br i1 %cmp25, label %for.end12, label %for.cond2.preheader.lr.ph

for.cond2.preheader.lr.ph:                        ; preds = %entry
  %m_nSamples = getelementptr inbounds %class.CBFormat, %class.CBFormat* %this, i64 0, i32 1
  %2 = load i32, i32* %m_nSamples, align 8, !tbaa !137
  %cmp323 = icmp eq i32 %2, 0
  %_M_head_impl.i.i.i.i.i.i = getelementptr inbounds %class.CBFormat, %class.CBFormat* %bf, i64 0, i32 4, i32 0, i32 0, i32 0, i32 0
  %3 = load float**, float*** %_M_head_impl.i.i.i.i.i.i, align 8
  br i1 %cmp323, label %for.end12, label %for.cond2.preheader.us.preheader

for.cond2.preheader.us.preheader:                 ; preds = %for.cond2.preheader.lr.ph
  %_M_head_impl.i.i.i.i.i.i21 = getelementptr inbounds %class.CBFormat, %class.CBFormat* %this, i64 0, i32 4, i32 0, i32 0, i32 0, i32 0
  %4 = zext i32 %1 to i64
  %.pre = load float**, float*** %_M_head_impl.i.i.i.i.i.i21, align 8, !tbaa !76
  %5 = zext i32 %2 to i64
  %xtraiter = and i64 %5, 1
  %6 = icmp eq i32 %2, 1
  %unroll_iter = sub nsw i64 %5, %xtraiter
  %lcmp.mod = icmp eq i64 %xtraiter, 0
  br label %for.cond2.preheader.us

for.cond2.preheader.us:                           ; preds = %for.cond2.for.inc10_crit_edge.us, %for.cond2.preheader.us.preheader
  %indvars.iv29 = phi i64 [ 0, %for.cond2.preheader.us.preheader ], [ %indvars.iv.next30, %for.cond2.for.inc10_crit_edge.us ]
  %arrayidx.i.us = getelementptr inbounds float*, float** %3, i64 %indvars.iv29
  %7 = load float*, float** %arrayidx.i.us, align 8, !tbaa !76
  %arrayidx.i22.us = getelementptr inbounds float*, float** %.pre, i64 %indvars.iv29
  %8 = load float*, float** %arrayidx.i22.us, align 8, !tbaa !76
  br i1 %6, label %for.cond2.for.inc10_crit_edge.us.unr-lcssa, label %for.body4.us

for.body4.us:                                     ; preds = %for.body4.us, %for.cond2.preheader.us
  %indvars.iv = phi i64 [ %indvars.iv.next.1, %for.body4.us ], [ 0, %for.cond2.preheader.us ]
  %niter = phi i64 [ %niter.nsub.1, %for.body4.us ], [ %unroll_iter, %for.cond2.preheader.us ]
  %arrayidx.us = getelementptr inbounds float, float* %7, i64 %indvars.iv
  %9 = load float, float* %arrayidx.us, align 4, !tbaa !83
  %arrayidx9.us = getelementptr inbounds float, float* %8, i64 %indvars.iv
  %10 = load float, float* %arrayidx9.us, align 4, !tbaa !83
  %div.us = fdiv float %10, %9
  store float %div.us, float* %arrayidx9.us, align 4, !tbaa !83
  %indvars.iv.next = or i64 %indvars.iv, 1
  %arrayidx.us.1 = getelementptr inbounds float, float* %7, i64 %indvars.iv.next
  %11 = load float, float* %arrayidx.us.1, align 4, !tbaa !83
  %arrayidx9.us.1 = getelementptr inbounds float, float* %8, i64 %indvars.iv.next
  %12 = load float, float* %arrayidx9.us.1, align 4, !tbaa !83
  %div.us.1 = fdiv float %12, %11
  store float %div.us.1, float* %arrayidx9.us.1, align 4, !tbaa !83
  %indvars.iv.next.1 = add nuw nsw i64 %indvars.iv, 2
  %niter.nsub.1 = add i64 %niter, -2
  %niter.ncmp.1 = icmp eq i64 %niter.nsub.1, 0
  br i1 %niter.ncmp.1, label %for.cond2.for.inc10_crit_edge.us.unr-lcssa, label %for.body4.us

for.cond2.for.inc10_crit_edge.us.unr-lcssa:       ; preds = %for.body4.us, %for.cond2.preheader.us
  %indvars.iv.unr = phi i64 [ 0, %for.cond2.preheader.us ], [ %indvars.iv.next.1, %for.body4.us ]
  br i1 %lcmp.mod, label %for.cond2.for.inc10_crit_edge.us, label %for.body4.us.epil

for.body4.us.epil:                                ; preds = %for.cond2.for.inc10_crit_edge.us.unr-lcssa
  %arrayidx.us.epil = getelementptr inbounds float, float* %7, i64 %indvars.iv.unr
  %13 = load float, float* %arrayidx.us.epil, align 4, !tbaa !83
  %arrayidx9.us.epil = getelementptr inbounds float, float* %8, i64 %indvars.iv.unr
  %14 = load float, float* %arrayidx9.us.epil, align 4, !tbaa !83
  %div.us.epil = fdiv float %14, %13
  store float %div.us.epil, float* %arrayidx9.us.epil, align 4, !tbaa !83
  br label %for.cond2.for.inc10_crit_edge.us

for.cond2.for.inc10_crit_edge.us:                 ; preds = %for.body4.us.epil, %for.cond2.for.inc10_crit_edge.us.unr-lcssa
  %indvars.iv.next30 = add nuw nsw i64 %indvars.iv29, 1
  %cmp.us = icmp ult i64 %indvars.iv.next30, %4
  br i1 %cmp.us, label %for.cond2.preheader.us, label %for.end12

for.end12:                                        ; preds = %for.cond2.for.inc10_crit_edge.us, %for.cond2.preheader.lr.ph, %entry
  ret %class.CBFormat* %this
}

; Function Attrs: nofree norecurse nounwind uwtable
define dereferenceable(64) %class.CBFormat* @_ZN8CBFormatpLERKf(%class.CBFormat* readonly returned %this, float* nocapture readonly dereferenceable(4) %fValue) local_unnamed_addr #12 align 2 !prof !103 {
entry:
  %0 = getelementptr inbounds %class.CBFormat, %class.CBFormat* %this, i64 0, i32 0, i32 4
  %1 = load i32, i32* %0, align 8, !tbaa !101
  %cmp16 = icmp eq i32 %1, 0
  br i1 %cmp16, label %for.end7, label %for.cond2.preheader.lr.ph

for.cond2.preheader.lr.ph:                        ; preds = %entry
  %m_nSamples = getelementptr inbounds %class.CBFormat, %class.CBFormat* %this, i64 0, i32 1
  %2 = load i32, i32* %m_nSamples, align 8, !tbaa !137
  %cmp314 = icmp eq i32 %2, 0
  br i1 %cmp314, label %for.end7, label %for.cond2.preheader.us.preheader

for.cond2.preheader.us.preheader:                 ; preds = %for.cond2.preheader.lr.ph
  %_M_head_impl.i.i.i.i.i.i = getelementptr inbounds %class.CBFormat, %class.CBFormat* %this, i64 0, i32 4, i32 0, i32 0, i32 0, i32 0
  %3 = zext i32 %1 to i64
  %.pre = load float**, float*** %_M_head_impl.i.i.i.i.i.i, align 8, !tbaa !76
  %4 = zext i32 %2 to i64
  %5 = add nsw i64 %4, -1
  %xtraiter = and i64 %4, 3
  %6 = icmp ult i64 %5, 3
  %unroll_iter = sub nsw i64 %4, %xtraiter
  %lcmp.mod = icmp eq i64 %xtraiter, 0
  br label %for.cond2.preheader.us

for.cond2.preheader.us:                           ; preds = %for.cond2.for.inc5_crit_edge.us, %for.cond2.preheader.us.preheader
  %indvars.iv20 = phi i64 [ 0, %for.cond2.preheader.us.preheader ], [ %indvars.iv.next21, %for.cond2.for.inc5_crit_edge.us ]
  %arrayidx.i.us = getelementptr inbounds float*, float** %.pre, i64 %indvars.iv20
  %7 = load float*, float** %arrayidx.i.us, align 8, !tbaa !76
  br i1 %6, label %for.cond2.for.inc5_crit_edge.us.unr-lcssa, label %for.body4.us

for.body4.us:                                     ; preds = %for.body4.us, %for.cond2.preheader.us
  %indvars.iv = phi i64 [ %indvars.iv.next.3, %for.body4.us ], [ 0, %for.cond2.preheader.us ]
  %niter = phi i64 [ %niter.nsub.3, %for.body4.us ], [ %unroll_iter, %for.cond2.preheader.us ]
  %8 = load float, float* %fValue, align 4, !tbaa !83
  %arrayidx.us = getelementptr inbounds float, float* %7, i64 %indvars.iv
  %9 = load float, float* %arrayidx.us, align 4, !tbaa !83
  %add.us = fadd float %8, %9
  store float %add.us, float* %arrayidx.us, align 4, !tbaa !83
  %indvars.iv.next = or i64 %indvars.iv, 1
  %10 = load float, float* %fValue, align 4, !tbaa !83
  %arrayidx.us.1 = getelementptr inbounds float, float* %7, i64 %indvars.iv.next
  %11 = load float, float* %arrayidx.us.1, align 4, !tbaa !83
  %add.us.1 = fadd float %10, %11
  store float %add.us.1, float* %arrayidx.us.1, align 4, !tbaa !83
  %indvars.iv.next.1 = or i64 %indvars.iv, 2
  %12 = load float, float* %fValue, align 4, !tbaa !83
  %arrayidx.us.2 = getelementptr inbounds float, float* %7, i64 %indvars.iv.next.1
  %13 = load float, float* %arrayidx.us.2, align 4, !tbaa !83
  %add.us.2 = fadd float %12, %13
  store float %add.us.2, float* %arrayidx.us.2, align 4, !tbaa !83
  %indvars.iv.next.2 = or i64 %indvars.iv, 3
  %14 = load float, float* %fValue, align 4, !tbaa !83
  %arrayidx.us.3 = getelementptr inbounds float, float* %7, i64 %indvars.iv.next.2
  %15 = load float, float* %arrayidx.us.3, align 4, !tbaa !83
  %add.us.3 = fadd float %14, %15
  store float %add.us.3, float* %arrayidx.us.3, align 4, !tbaa !83
  %indvars.iv.next.3 = add nuw nsw i64 %indvars.iv, 4
  %niter.nsub.3 = add i64 %niter, -4
  %niter.ncmp.3 = icmp eq i64 %niter.nsub.3, 0
  br i1 %niter.ncmp.3, label %for.cond2.for.inc5_crit_edge.us.unr-lcssa, label %for.body4.us

for.cond2.for.inc5_crit_edge.us.unr-lcssa:        ; preds = %for.body4.us, %for.cond2.preheader.us
  %indvars.iv.unr = phi i64 [ 0, %for.cond2.preheader.us ], [ %indvars.iv.next.3, %for.body4.us ]
  br i1 %lcmp.mod, label %for.cond2.for.inc5_crit_edge.us, label %for.body4.us.epil

for.body4.us.epil:                                ; preds = %for.body4.us.epil, %for.cond2.for.inc5_crit_edge.us.unr-lcssa
  %indvars.iv.epil = phi i64 [ %indvars.iv.next.epil, %for.body4.us.epil ], [ %indvars.iv.unr, %for.cond2.for.inc5_crit_edge.us.unr-lcssa ]
  %epil.iter = phi i64 [ %epil.iter.sub, %for.body4.us.epil ], [ %xtraiter, %for.cond2.for.inc5_crit_edge.us.unr-lcssa ]
  %16 = load float, float* %fValue, align 4, !tbaa !83
  %arrayidx.us.epil = getelementptr inbounds float, float* %7, i64 %indvars.iv.epil
  %17 = load float, float* %arrayidx.us.epil, align 4, !tbaa !83
  %add.us.epil = fadd float %16, %17
  store float %add.us.epil, float* %arrayidx.us.epil, align 4, !tbaa !83
  %indvars.iv.next.epil = add nuw nsw i64 %indvars.iv.epil, 1
  %epil.iter.sub = add i64 %epil.iter, -1
  %epil.iter.cmp = icmp eq i64 %epil.iter.sub, 0
  br i1 %epil.iter.cmp, label %for.cond2.for.inc5_crit_edge.us, label %for.body4.us.epil, !llvm.loop !150

for.cond2.for.inc5_crit_edge.us:                  ; preds = %for.body4.us.epil, %for.cond2.for.inc5_crit_edge.us.unr-lcssa
  %indvars.iv.next21 = add nuw nsw i64 %indvars.iv20, 1
  %cmp.us = icmp ult i64 %indvars.iv.next21, %3
  br i1 %cmp.us, label %for.cond2.preheader.us, label %for.end7

for.end7:                                         ; preds = %for.cond2.for.inc5_crit_edge.us, %for.cond2.preheader.lr.ph, %entry
  ret %class.CBFormat* %this
}

; Function Attrs: nofree norecurse nounwind uwtable
define dereferenceable(64) %class.CBFormat* @_ZN8CBFormatmIERKf(%class.CBFormat* readonly returned %this, float* nocapture readonly dereferenceable(4) %fValue) local_unnamed_addr #12 align 2 !prof !103 {
entry:
  %0 = getelementptr inbounds %class.CBFormat, %class.CBFormat* %this, i64 0, i32 0, i32 4
  %1 = load i32, i32* %0, align 8, !tbaa !101
  %cmp16 = icmp eq i32 %1, 0
  br i1 %cmp16, label %for.end7, label %for.cond2.preheader.lr.ph

for.cond2.preheader.lr.ph:                        ; preds = %entry
  %m_nSamples = getelementptr inbounds %class.CBFormat, %class.CBFormat* %this, i64 0, i32 1
  %2 = load i32, i32* %m_nSamples, align 8, !tbaa !137
  %cmp314 = icmp eq i32 %2, 0
  br i1 %cmp314, label %for.end7, label %for.cond2.preheader.us.preheader

for.cond2.preheader.us.preheader:                 ; preds = %for.cond2.preheader.lr.ph
  %_M_head_impl.i.i.i.i.i.i = getelementptr inbounds %class.CBFormat, %class.CBFormat* %this, i64 0, i32 4, i32 0, i32 0, i32 0, i32 0
  %3 = zext i32 %1 to i64
  %.pre = load float**, float*** %_M_head_impl.i.i.i.i.i.i, align 8, !tbaa !76
  %4 = zext i32 %2 to i64
  %5 = add nsw i64 %4, -1
  %xtraiter = and i64 %4, 3
  %6 = icmp ult i64 %5, 3
  %unroll_iter = sub nsw i64 %4, %xtraiter
  %lcmp.mod = icmp eq i64 %xtraiter, 0
  br label %for.cond2.preheader.us

for.cond2.preheader.us:                           ; preds = %for.cond2.for.inc5_crit_edge.us, %for.cond2.preheader.us.preheader
  %indvars.iv20 = phi i64 [ 0, %for.cond2.preheader.us.preheader ], [ %indvars.iv.next21, %for.cond2.for.inc5_crit_edge.us ]
  %arrayidx.i.us = getelementptr inbounds float*, float** %.pre, i64 %indvars.iv20
  %7 = load float*, float** %arrayidx.i.us, align 8, !tbaa !76
  br i1 %6, label %for.cond2.for.inc5_crit_edge.us.unr-lcssa, label %for.body4.us

for.body4.us:                                     ; preds = %for.body4.us, %for.cond2.preheader.us
  %indvars.iv = phi i64 [ %indvars.iv.next.3, %for.body4.us ], [ 0, %for.cond2.preheader.us ]
  %niter = phi i64 [ %niter.nsub.3, %for.body4.us ], [ %unroll_iter, %for.cond2.preheader.us ]
  %8 = load float, float* %fValue, align 4, !tbaa !83
  %arrayidx.us = getelementptr inbounds float, float* %7, i64 %indvars.iv
  %9 = load float, float* %arrayidx.us, align 4, !tbaa !83
  %sub.us = fsub float %9, %8
  store float %sub.us, float* %arrayidx.us, align 4, !tbaa !83
  %indvars.iv.next = or i64 %indvars.iv, 1
  %10 = load float, float* %fValue, align 4, !tbaa !83
  %arrayidx.us.1 = getelementptr inbounds float, float* %7, i64 %indvars.iv.next
  %11 = load float, float* %arrayidx.us.1, align 4, !tbaa !83
  %sub.us.1 = fsub float %11, %10
  store float %sub.us.1, float* %arrayidx.us.1, align 4, !tbaa !83
  %indvars.iv.next.1 = or i64 %indvars.iv, 2
  %12 = load float, float* %fValue, align 4, !tbaa !83
  %arrayidx.us.2 = getelementptr inbounds float, float* %7, i64 %indvars.iv.next.1
  %13 = load float, float* %arrayidx.us.2, align 4, !tbaa !83
  %sub.us.2 = fsub float %13, %12
  store float %sub.us.2, float* %arrayidx.us.2, align 4, !tbaa !83
  %indvars.iv.next.2 = or i64 %indvars.iv, 3
  %14 = load float, float* %fValue, align 4, !tbaa !83
  %arrayidx.us.3 = getelementptr inbounds float, float* %7, i64 %indvars.iv.next.2
  %15 = load float, float* %arrayidx.us.3, align 4, !tbaa !83
  %sub.us.3 = fsub float %15, %14
  store float %sub.us.3, float* %arrayidx.us.3, align 4, !tbaa !83
  %indvars.iv.next.3 = add nuw nsw i64 %indvars.iv, 4
  %niter.nsub.3 = add i64 %niter, -4
  %niter.ncmp.3 = icmp eq i64 %niter.nsub.3, 0
  br i1 %niter.ncmp.3, label %for.cond2.for.inc5_crit_edge.us.unr-lcssa, label %for.body4.us

for.cond2.for.inc5_crit_edge.us.unr-lcssa:        ; preds = %for.body4.us, %for.cond2.preheader.us
  %indvars.iv.unr = phi i64 [ 0, %for.cond2.preheader.us ], [ %indvars.iv.next.3, %for.body4.us ]
  br i1 %lcmp.mod, label %for.cond2.for.inc5_crit_edge.us, label %for.body4.us.epil

for.body4.us.epil:                                ; preds = %for.body4.us.epil, %for.cond2.for.inc5_crit_edge.us.unr-lcssa
  %indvars.iv.epil = phi i64 [ %indvars.iv.next.epil, %for.body4.us.epil ], [ %indvars.iv.unr, %for.cond2.for.inc5_crit_edge.us.unr-lcssa ]
  %epil.iter = phi i64 [ %epil.iter.sub, %for.body4.us.epil ], [ %xtraiter, %for.cond2.for.inc5_crit_edge.us.unr-lcssa ]
  %16 = load float, float* %fValue, align 4, !tbaa !83
  %arrayidx.us.epil = getelementptr inbounds float, float* %7, i64 %indvars.iv.epil
  %17 = load float, float* %arrayidx.us.epil, align 4, !tbaa !83
  %sub.us.epil = fsub float %17, %16
  store float %sub.us.epil, float* %arrayidx.us.epil, align 4, !tbaa !83
  %indvars.iv.next.epil = add nuw nsw i64 %indvars.iv.epil, 1
  %epil.iter.sub = add i64 %epil.iter, -1
  %epil.iter.cmp = icmp eq i64 %epil.iter.sub, 0
  br i1 %epil.iter.cmp, label %for.cond2.for.inc5_crit_edge.us, label %for.body4.us.epil, !llvm.loop !151

for.cond2.for.inc5_crit_edge.us:                  ; preds = %for.body4.us.epil, %for.cond2.for.inc5_crit_edge.us.unr-lcssa
  %indvars.iv.next21 = add nuw nsw i64 %indvars.iv20, 1
  %cmp.us = icmp ult i64 %indvars.iv.next21, %3
  br i1 %cmp.us, label %for.cond2.preheader.us, label %for.end7

for.end7:                                         ; preds = %for.cond2.for.inc5_crit_edge.us, %for.cond2.preheader.lr.ph, %entry
  ret %class.CBFormat* %this
}

; Function Attrs: nofree norecurse nounwind uwtable
define dereferenceable(64) %class.CBFormat* @_ZN8CBFormatmLERKf(%class.CBFormat* readonly returned %this, float* nocapture readonly dereferenceable(4) %fValue) local_unnamed_addr #12 align 2 !prof !103 {
entry:
  %0 = getelementptr inbounds %class.CBFormat, %class.CBFormat* %this, i64 0, i32 0, i32 4
  %1 = load i32, i32* %0, align 8, !tbaa !101
  %cmp16 = icmp eq i32 %1, 0
  br i1 %cmp16, label %for.end7, label %for.cond2.preheader.lr.ph

for.cond2.preheader.lr.ph:                        ; preds = %entry
  %m_nSamples = getelementptr inbounds %class.CBFormat, %class.CBFormat* %this, i64 0, i32 1
  %2 = load i32, i32* %m_nSamples, align 8, !tbaa !137
  %cmp314 = icmp eq i32 %2, 0
  br i1 %cmp314, label %for.end7, label %for.cond2.preheader.us.preheader

for.cond2.preheader.us.preheader:                 ; preds = %for.cond2.preheader.lr.ph
  %_M_head_impl.i.i.i.i.i.i = getelementptr inbounds %class.CBFormat, %class.CBFormat* %this, i64 0, i32 4, i32 0, i32 0, i32 0, i32 0
  %3 = zext i32 %1 to i64
  %.pre = load float**, float*** %_M_head_impl.i.i.i.i.i.i, align 8, !tbaa !76
  %4 = zext i32 %2 to i64
  %5 = add nsw i64 %4, -1
  %xtraiter = and i64 %4, 3
  %6 = icmp ult i64 %5, 3
  %unroll_iter = sub nsw i64 %4, %xtraiter
  %lcmp.mod = icmp eq i64 %xtraiter, 0
  br label %for.cond2.preheader.us

for.cond2.preheader.us:                           ; preds = %for.cond2.for.inc5_crit_edge.us, %for.cond2.preheader.us.preheader
  %indvars.iv20 = phi i64 [ 0, %for.cond2.preheader.us.preheader ], [ %indvars.iv.next21, %for.cond2.for.inc5_crit_edge.us ]
  %arrayidx.i.us = getelementptr inbounds float*, float** %.pre, i64 %indvars.iv20
  %7 = load float*, float** %arrayidx.i.us, align 8, !tbaa !76
  br i1 %6, label %for.cond2.for.inc5_crit_edge.us.unr-lcssa, label %for.body4.us

for.body4.us:                                     ; preds = %for.body4.us, %for.cond2.preheader.us
  %indvars.iv = phi i64 [ %indvars.iv.next.3, %for.body4.us ], [ 0, %for.cond2.preheader.us ]
  %niter = phi i64 [ %niter.nsub.3, %for.body4.us ], [ %unroll_iter, %for.cond2.preheader.us ]
  %8 = load float, float* %fValue, align 4, !tbaa !83
  %arrayidx.us = getelementptr inbounds float, float* %7, i64 %indvars.iv
  %9 = load float, float* %arrayidx.us, align 4, !tbaa !83
  %mul.us = fmul float %8, %9
  store float %mul.us, float* %arrayidx.us, align 4, !tbaa !83
  %indvars.iv.next = or i64 %indvars.iv, 1
  %10 = load float, float* %fValue, align 4, !tbaa !83
  %arrayidx.us.1 = getelementptr inbounds float, float* %7, i64 %indvars.iv.next
  %11 = load float, float* %arrayidx.us.1, align 4, !tbaa !83
  %mul.us.1 = fmul float %10, %11
  store float %mul.us.1, float* %arrayidx.us.1, align 4, !tbaa !83
  %indvars.iv.next.1 = or i64 %indvars.iv, 2
  %12 = load float, float* %fValue, align 4, !tbaa !83
  %arrayidx.us.2 = getelementptr inbounds float, float* %7, i64 %indvars.iv.next.1
  %13 = load float, float* %arrayidx.us.2, align 4, !tbaa !83
  %mul.us.2 = fmul float %12, %13
  store float %mul.us.2, float* %arrayidx.us.2, align 4, !tbaa !83
  %indvars.iv.next.2 = or i64 %indvars.iv, 3
  %14 = load float, float* %fValue, align 4, !tbaa !83
  %arrayidx.us.3 = getelementptr inbounds float, float* %7, i64 %indvars.iv.next.2
  %15 = load float, float* %arrayidx.us.3, align 4, !tbaa !83
  %mul.us.3 = fmul float %14, %15
  store float %mul.us.3, float* %arrayidx.us.3, align 4, !tbaa !83
  %indvars.iv.next.3 = add nuw nsw i64 %indvars.iv, 4
  %niter.nsub.3 = add i64 %niter, -4
  %niter.ncmp.3 = icmp eq i64 %niter.nsub.3, 0
  br i1 %niter.ncmp.3, label %for.cond2.for.inc5_crit_edge.us.unr-lcssa, label %for.body4.us

for.cond2.for.inc5_crit_edge.us.unr-lcssa:        ; preds = %for.body4.us, %for.cond2.preheader.us
  %indvars.iv.unr = phi i64 [ 0, %for.cond2.preheader.us ], [ %indvars.iv.next.3, %for.body4.us ]
  br i1 %lcmp.mod, label %for.cond2.for.inc5_crit_edge.us, label %for.body4.us.epil

for.body4.us.epil:                                ; preds = %for.body4.us.epil, %for.cond2.for.inc5_crit_edge.us.unr-lcssa
  %indvars.iv.epil = phi i64 [ %indvars.iv.next.epil, %for.body4.us.epil ], [ %indvars.iv.unr, %for.cond2.for.inc5_crit_edge.us.unr-lcssa ]
  %epil.iter = phi i64 [ %epil.iter.sub, %for.body4.us.epil ], [ %xtraiter, %for.cond2.for.inc5_crit_edge.us.unr-lcssa ]
  %16 = load float, float* %fValue, align 4, !tbaa !83
  %arrayidx.us.epil = getelementptr inbounds float, float* %7, i64 %indvars.iv.epil
  %17 = load float, float* %arrayidx.us.epil, align 4, !tbaa !83
  %mul.us.epil = fmul float %16, %17
  store float %mul.us.epil, float* %arrayidx.us.epil, align 4, !tbaa !83
  %indvars.iv.next.epil = add nuw nsw i64 %indvars.iv.epil, 1
  %epil.iter.sub = add i64 %epil.iter, -1
  %epil.iter.cmp = icmp eq i64 %epil.iter.sub, 0
  br i1 %epil.iter.cmp, label %for.cond2.for.inc5_crit_edge.us, label %for.body4.us.epil, !llvm.loop !152

for.cond2.for.inc5_crit_edge.us:                  ; preds = %for.body4.us.epil, %for.cond2.for.inc5_crit_edge.us.unr-lcssa
  %indvars.iv.next21 = add nuw nsw i64 %indvars.iv20, 1
  %cmp.us = icmp ult i64 %indvars.iv.next21, %3
  br i1 %cmp.us, label %for.cond2.preheader.us, label %for.end7

for.end7:                                         ; preds = %for.cond2.for.inc5_crit_edge.us, %for.cond2.preheader.lr.ph, %entry
  ret %class.CBFormat* %this
}

; Function Attrs: nofree norecurse nounwind uwtable
define dereferenceable(64) %class.CBFormat* @_ZN8CBFormatdVERKf(%class.CBFormat* readonly returned %this, float* nocapture readonly dereferenceable(4) %fValue) local_unnamed_addr #12 align 2 !prof !103 {
entry:
  %0 = getelementptr inbounds %class.CBFormat, %class.CBFormat* %this, i64 0, i32 0, i32 4
  %1 = load i32, i32* %0, align 8, !tbaa !101
  %cmp16 = icmp eq i32 %1, 0
  br i1 %cmp16, label %for.end7, label %for.cond2.preheader.lr.ph

for.cond2.preheader.lr.ph:                        ; preds = %entry
  %m_nSamples = getelementptr inbounds %class.CBFormat, %class.CBFormat* %this, i64 0, i32 1
  %2 = load i32, i32* %m_nSamples, align 8, !tbaa !137
  %cmp314 = icmp eq i32 %2, 0
  br i1 %cmp314, label %for.end7, label %for.cond2.preheader.us.preheader

for.cond2.preheader.us.preheader:                 ; preds = %for.cond2.preheader.lr.ph
  %_M_head_impl.i.i.i.i.i.i = getelementptr inbounds %class.CBFormat, %class.CBFormat* %this, i64 0, i32 4, i32 0, i32 0, i32 0, i32 0
  %3 = zext i32 %1 to i64
  %.pre = load float**, float*** %_M_head_impl.i.i.i.i.i.i, align 8, !tbaa !76
  %4 = zext i32 %2 to i64
  %xtraiter = and i64 %4, 1
  %5 = icmp eq i32 %2, 1
  %unroll_iter = sub nsw i64 %4, %xtraiter
  %lcmp.mod = icmp eq i64 %xtraiter, 0
  br label %for.cond2.preheader.us

for.cond2.preheader.us:                           ; preds = %for.cond2.for.inc5_crit_edge.us, %for.cond2.preheader.us.preheader
  %indvars.iv20 = phi i64 [ 0, %for.cond2.preheader.us.preheader ], [ %indvars.iv.next21, %for.cond2.for.inc5_crit_edge.us ]
  %arrayidx.i.us = getelementptr inbounds float*, float** %.pre, i64 %indvars.iv20
  %6 = load float*, float** %arrayidx.i.us, align 8, !tbaa !76
  br i1 %5, label %for.cond2.for.inc5_crit_edge.us.unr-lcssa, label %for.body4.us

for.body4.us:                                     ; preds = %for.body4.us, %for.cond2.preheader.us
  %indvars.iv = phi i64 [ %indvars.iv.next.1, %for.body4.us ], [ 0, %for.cond2.preheader.us ]
  %niter = phi i64 [ %niter.nsub.1, %for.body4.us ], [ %unroll_iter, %for.cond2.preheader.us ]
  %7 = load float, float* %fValue, align 4, !tbaa !83
  %arrayidx.us = getelementptr inbounds float, float* %6, i64 %indvars.iv
  %8 = load float, float* %arrayidx.us, align 4, !tbaa !83
  %div.us = fdiv float %8, %7
  store float %div.us, float* %arrayidx.us, align 4, !tbaa !83
  %indvars.iv.next = or i64 %indvars.iv, 1
  %9 = load float, float* %fValue, align 4, !tbaa !83
  %arrayidx.us.1 = getelementptr inbounds float, float* %6, i64 %indvars.iv.next
  %10 = load float, float* %arrayidx.us.1, align 4, !tbaa !83
  %div.us.1 = fdiv float %10, %9
  store float %div.us.1, float* %arrayidx.us.1, align 4, !tbaa !83
  %indvars.iv.next.1 = add nuw nsw i64 %indvars.iv, 2
  %niter.nsub.1 = add i64 %niter, -2
  %niter.ncmp.1 = icmp eq i64 %niter.nsub.1, 0
  br i1 %niter.ncmp.1, label %for.cond2.for.inc5_crit_edge.us.unr-lcssa, label %for.body4.us

for.cond2.for.inc5_crit_edge.us.unr-lcssa:        ; preds = %for.body4.us, %for.cond2.preheader.us
  %indvars.iv.unr = phi i64 [ 0, %for.cond2.preheader.us ], [ %indvars.iv.next.1, %for.body4.us ]
  br i1 %lcmp.mod, label %for.cond2.for.inc5_crit_edge.us, label %for.body4.us.epil

for.body4.us.epil:                                ; preds = %for.cond2.for.inc5_crit_edge.us.unr-lcssa
  %11 = load float, float* %fValue, align 4, !tbaa !83
  %arrayidx.us.epil = getelementptr inbounds float, float* %6, i64 %indvars.iv.unr
  %12 = load float, float* %arrayidx.us.epil, align 4, !tbaa !83
  %div.us.epil = fdiv float %12, %11
  store float %div.us.epil, float* %arrayidx.us.epil, align 4, !tbaa !83
  br label %for.cond2.for.inc5_crit_edge.us

for.cond2.for.inc5_crit_edge.us:                  ; preds = %for.body4.us.epil, %for.cond2.for.inc5_crit_edge.us.unr-lcssa
  %indvars.iv.next21 = add nuw nsw i64 %indvars.iv20, 1
  %cmp.us = icmp ult i64 %indvars.iv.next21, %3
  br i1 %cmp.us, label %for.cond2.preheader.us, label %for.end7

for.end7:                                         ; preds = %for.cond2.for.inc5_crit_edge.us, %for.cond2.preheader.lr.ph, %entry
  ret %class.CBFormat* %this
}

; Function Attrs: nounwind uwtable
define void @_ZN17CAmbisonicEncoderC2Ev(%class.CAmbisonicEncoder* nocapture %this) unnamed_addr #7 align 2 personality i32 (...)* @__gxx_personality_v0 !prof !153 {
entry:
  %0 = getelementptr inbounds %class.CAmbisonicEncoder, %class.CAmbisonicEncoder* %this, i64 0, i32 0, i32 0, i32 0
  %1 = getelementptr inbounds %class.CAmbisonicEncoder, %class.CAmbisonicEncoder* %this, i64 0, i32 0, i32 0, i32 1
  store i32 0, i32* %1, align 8, !tbaa !97
  %2 = getelementptr inbounds %class.CAmbisonicEncoder, %class.CAmbisonicEncoder* %this, i64 0, i32 0, i32 0, i32 2
  store i8 0, i8* %2, align 4, !tbaa !100
  %3 = getelementptr inbounds %class.CAmbisonicEncoder, %class.CAmbisonicEncoder* %this, i64 0, i32 0, i32 0, i32 4
  store i32 0, i32* %3, align 8, !tbaa !101
  %4 = getelementptr inbounds %class.CAmbisonicEncoder, %class.CAmbisonicEncoder* %this, i64 0, i32 0, i32 0, i32 5
  store i8 0, i8* %4, align 4, !tbaa !102
  %m_pfCoeff.i = getelementptr inbounds %class.CAmbisonicEncoder, %class.CAmbisonicEncoder* %this, i64 0, i32 0, i32 1
  %fDistance.i = getelementptr inbounds %class.CAmbisonicEncoder, %class.CAmbisonicEncoder* %this, i64 0, i32 0, i32 3, i32 2
  %5 = bitcast %"class.std::vector.0"* %m_pfCoeff.i to i8*
  tail call void @llvm.memset.p0i8.i64(i8* nonnull align 8 %5, i8 0, i64 56, i1 false) #24
  store float 1.000000e+00, float* %fDistance.i, align 8, !tbaa !107
  %m_fGain.i = getelementptr inbounds %class.CAmbisonicEncoder, %class.CAmbisonicEncoder* %this, i64 0, i32 0, i32 4
  store float 1.000000e+00, float* %m_fGain.i, align 4, !tbaa !111
  store i32 (...)** bitcast (i8** getelementptr inbounds ({ [16 x i8*] }, { [16 x i8*] }* @_ZTV17CAmbisonicEncoder, i64 0, inrange i32 0, i64 2) to i32 (...)**), i32 (...)*** %0, align 8, !tbaa !68
  ret void
}

; Function Attrs: nounwind uwtable
define void @_ZN17CAmbisonicEncoderD2Ev(%class.CAmbisonicEncoder* nocapture %this) unnamed_addr #7 align 2 personality i32 (...)* @__gxx_personality_v0 !prof !61 {
entry:
  %0 = getelementptr inbounds %class.CAmbisonicEncoder, %class.CAmbisonicEncoder* %this, i64 0, i32 0, i32 0, i32 0
  store i32 (...)** bitcast (i8** getelementptr inbounds ({ [16 x i8*] }, { [16 x i8*] }* @_ZTV16CAmbisonicSource, i64 0, inrange i32 0, i64 2) to i32 (...)**), i32 (...)*** %0, align 8, !tbaa !68
  %_M_start.i.i.i = getelementptr inbounds %class.CAmbisonicEncoder, %class.CAmbisonicEncoder* %this, i64 0, i32 0, i32 2, i32 0, i32 0, i32 0
  %1 = load float*, float** %_M_start.i.i.i, align 8, !tbaa !116
  %tobool.i.i.i.i = icmp eq float* %1, null
  br i1 %tobool.i.i.i.i, label %_ZNSt6vectorIfSaIfEED2Ev.exit.i, label %if.then.i.i.i.i, !prof !154

if.then.i.i.i.i:                                  ; preds = %entry
  %2 = bitcast float* %1 to i8*
  tail call void @_ZdlPv(i8* nonnull %2) #24
  br label %_ZNSt6vectorIfSaIfEED2Ev.exit.i

_ZNSt6vectorIfSaIfEED2Ev.exit.i:                  ; preds = %if.then.i.i.i.i, %entry
  %_M_start.i.i2.i = getelementptr inbounds %class.CAmbisonicEncoder, %class.CAmbisonicEncoder* %this, i64 0, i32 0, i32 1, i32 0, i32 0, i32 0
  %3 = load float*, float** %_M_start.i.i2.i, align 8, !tbaa !116
  %tobool.i.i.i3.i = icmp eq float* %3, null
  br i1 %tobool.i.i.i3.i, label %_ZN16CAmbisonicSourceD2Ev.exit, label %if.then.i.i.i4.i, !prof !154

if.then.i.i.i4.i:                                 ; preds = %_ZNSt6vectorIfSaIfEED2Ev.exit.i
  %4 = bitcast float* %3 to i8*
  tail call void @_ZdlPv(i8* nonnull %4) #24
  br label %_ZN16CAmbisonicSourceD2Ev.exit

_ZN16CAmbisonicSourceD2Ev.exit:                   ; preds = %if.then.i.i.i4.i, %_ZNSt6vectorIfSaIfEED2Ev.exit.i
  ret void
}

; Function Attrs: nounwind uwtable
define void @_ZN17CAmbisonicEncoderD0Ev(%class.CAmbisonicEncoder* %this) unnamed_addr #7 align 2 {
entry:
  tail call void @_ZN17CAmbisonicEncoderD2Ev(%class.CAmbisonicEncoder* %this) #24
  %0 = bitcast %class.CAmbisonicEncoder* %this to i8*
  tail call void @_ZdlPv(i8* %0) #26
  ret void
}

; Function Attrs: nobuiltin nounwind
declare void @_ZdlPv(i8*) local_unnamed_addr #14

; Function Attrs: uwtable
define zeroext i1 @_ZN17CAmbisonicEncoder9ConfigureEjbj(%class.CAmbisonicEncoder* %this, i32 %nOrder, i1 zeroext %b3D, i32 %nMisc) unnamed_addr #3 align 2 personality i32 (...)* @__gxx_personality_v0 !prof !155 {
entry:
  %ref.tmp.i = alloca float, align 4
  %ref.tmp5.i = alloca float, align 4
  %frombool.i.i = zext i1 %b3D to i8
  %0 = getelementptr inbounds %class.CAmbisonicEncoder, %class.CAmbisonicEncoder* %this, i64 0, i32 0, i32 0, i32 1
  store i32 %nOrder, i32* %0, align 8, !tbaa !97
  %1 = getelementptr inbounds %class.CAmbisonicEncoder, %class.CAmbisonicEncoder* %this, i64 0, i32 0, i32 0, i32 2
  store i8 %frombool.i.i, i8* %1, align 4, !tbaa !100
  %call.i.i = tail call i32 @_Z17OrderToComponentsjb(i32 %nOrder, i1 zeroext %b3D)
  %2 = getelementptr inbounds %class.CAmbisonicEncoder, %class.CAmbisonicEncoder* %this, i64 0, i32 0, i32 0, i32 4
  store i32 %call.i.i, i32* %2, align 8, !tbaa !101
  %m_pfCoeff.i = getelementptr inbounds %class.CAmbisonicEncoder, %class.CAmbisonicEncoder* %this, i64 0, i32 0, i32 1
  %conv.i = zext i32 %call.i.i to i64
  %3 = bitcast float* %ref.tmp.i to i8*
  call void @llvm.lifetime.start.p0i8(i64 4, i8* nonnull %3) #24
  store float 0.000000e+00, float* %ref.tmp.i, align 4, !tbaa !83
  %_M_finish.i.i.i = getelementptr inbounds %class.CAmbisonicEncoder, %class.CAmbisonicEncoder* %this, i64 0, i32 0, i32 1, i32 0, i32 0, i32 1
  %4 = bitcast float** %_M_finish.i.i.i to i64*
  %5 = load i64, i64* %4, align 8, !tbaa !113
  %6 = bitcast %"class.std::vector.0"* %m_pfCoeff.i to i64*
  %7 = load i64, i64* %6, align 8, !tbaa !116
  %sub.ptr.sub.i.i.i = sub i64 %5, %7
  %sub.ptr.div.i.i.i = ashr exact i64 %sub.ptr.sub.i.i.i, 2
  %cmp.i.i = icmp ult i64 %sub.ptr.div.i.i.i, %conv.i
  %8 = inttoptr i64 %7 to float*
  br i1 %cmp.i.i, label %if.then.i.i, label %if.else.i.i, !prof !117

if.then.i.i:                                      ; preds = %entry
  %9 = inttoptr i64 %5 to float*
  %sub.i.i = sub nsw i64 %conv.i, %sub.ptr.div.i.i.i
  call void @_ZNSt6vectorIfSaIfEE14_M_fill_insertEN9__gnu_cxx17__normal_iteratorIPfS1_EEmRKf(%"class.std::vector.0"* nonnull %m_pfCoeff.i, float* %9, i64 %sub.i.i, float* nonnull dereferenceable(4) %ref.tmp.i)
  br label %_ZNSt6vectorIfSaIfEE6resizeEmRKf.exit.i

if.else.i.i:                                      ; preds = %entry
  %cmp8.i.i = icmp ugt i64 %sub.ptr.div.i.i.i, %conv.i
  br i1 %cmp8.i.i, label %if.then9.i.i, label %_ZNSt6vectorIfSaIfEE6resizeEmRKf.exit.i

if.then9.i.i:                                     ; preds = %if.else.i.i
  %add.ptr.i.i = getelementptr inbounds float, float* %8, i64 %conv.i
  store float* %add.ptr.i.i, float** %_M_finish.i.i.i, align 8, !tbaa !113
  br label %_ZNSt6vectorIfSaIfEE6resizeEmRKf.exit.i

_ZNSt6vectorIfSaIfEE6resizeEmRKf.exit.i:          ; preds = %if.then9.i.i, %if.else.i.i, %if.then.i.i
  call void @llvm.lifetime.end.p0i8(i64 4, i8* nonnull %3) #24
  %m_pfOrderWeights.i = getelementptr inbounds %class.CAmbisonicEncoder, %class.CAmbisonicEncoder* %this, i64 0, i32 0, i32 2
  %10 = load i32, i32* %0, align 8, !tbaa !97
  %add.i = add i32 %10, 1
  %conv4.i = zext i32 %add.i to i64
  %11 = bitcast float* %ref.tmp5.i to i8*
  call void @llvm.lifetime.start.p0i8(i64 4, i8* nonnull %11) #24
  store float 1.000000e+00, float* %ref.tmp5.i, align 4, !tbaa !83
  %_M_finish.i.i6.i = getelementptr inbounds %class.CAmbisonicEncoder, %class.CAmbisonicEncoder* %this, i64 0, i32 0, i32 2, i32 0, i32 0, i32 1
  %12 = bitcast float** %_M_finish.i.i6.i to i64*
  %13 = load i64, i64* %12, align 8, !tbaa !113
  %14 = bitcast %"class.std::vector.0"* %m_pfOrderWeights.i to i64*
  %15 = load i64, i64* %14, align 8, !tbaa !116
  %sub.ptr.sub.i.i7.i = sub i64 %13, %15
  %sub.ptr.div.i.i8.i = ashr exact i64 %sub.ptr.sub.i.i7.i, 2
  %cmp.i9.i = icmp ult i64 %sub.ptr.div.i.i8.i, %conv4.i
  %16 = inttoptr i64 %15 to float*
  br i1 %cmp.i9.i, label %if.then.i11.i, label %if.else.i13.i, !prof !117

if.then.i11.i:                                    ; preds = %_ZNSt6vectorIfSaIfEE6resizeEmRKf.exit.i
  %17 = inttoptr i64 %13 to float*
  %sub.i10.i = sub nsw i64 %conv4.i, %sub.ptr.div.i.i8.i
  call void @_ZNSt6vectorIfSaIfEE14_M_fill_insertEN9__gnu_cxx17__normal_iteratorIPfS1_EEmRKf(%"class.std::vector.0"* nonnull %m_pfOrderWeights.i, float* %17, i64 %sub.i10.i, float* nonnull dereferenceable(4) %ref.tmp5.i)
  br label %_ZN16CAmbisonicSource9ConfigureEjbj.exit

if.else.i13.i:                                    ; preds = %_ZNSt6vectorIfSaIfEE6resizeEmRKf.exit.i
  %cmp8.i12.i = icmp ugt i64 %sub.ptr.div.i.i8.i, %conv4.i
  br i1 %cmp8.i12.i, label %if.then9.i15.i, label %_ZN16CAmbisonicSource9ConfigureEjbj.exit

if.then9.i15.i:                                   ; preds = %if.else.i13.i
  %add.ptr.i14.i = getelementptr inbounds float, float* %16, i64 %conv4.i
  store float* %add.ptr.i14.i, float** %_M_finish.i.i6.i, align 8, !tbaa !113
  br label %_ZN16CAmbisonicSource9ConfigureEjbj.exit

_ZN16CAmbisonicSource9ConfigureEjbj.exit:         ; preds = %if.then9.i15.i, %if.else.i13.i, %if.then.i11.i
  call void @llvm.lifetime.end.p0i8(i64 4, i8* nonnull %11) #24
  ret i1 true
}

; Function Attrs: nofree nounwind uwtable
define void @_ZN17CAmbisonicEncoder7RefreshEv(%class.CAmbisonicEncoder* readonly %this) unnamed_addr #9 align 2 !prof !156 {
entry:
  %0 = getelementptr inbounds %class.CAmbisonicEncoder, %class.CAmbisonicEncoder* %this, i64 0, i32 0
  tail call void @_ZN16CAmbisonicSource7RefreshEv(%class.CAmbisonicSource* %0)
  ret void
}

; Function Attrs: nofree norecurse nounwind uwtable
define void @_ZN17CAmbisonicEncoder7ProcessEPfjP8CBFormat(%class.CAmbisonicEncoder* nocapture readonly %this, float* nocapture readonly %pfSrc, i32 %nSamples, %class.CBFormat* nocapture readonly %pfDst) local_unnamed_addr #12 align 2 !prof !103 {
entry:
  %0 = getelementptr inbounds %class.CAmbisonicEncoder, %class.CAmbisonicEncoder* %this, i64 0, i32 0, i32 0, i32 4
  %1 = load i32, i32* %0, align 8, !tbaa !101
  %cmp22 = icmp eq i32 %1, 0
  %cmp320 = icmp eq i32 %nSamples, 0
  %or.cond = or i1 %cmp22, %cmp320
  br i1 %or.cond, label %for.end11, label %for.cond2.preheader.us.preheader

for.cond2.preheader.us.preheader:                 ; preds = %entry
  %_M_head_impl.i.i.i.i.i.i = getelementptr inbounds %class.CBFormat, %class.CBFormat* %pfDst, i64 0, i32 4, i32 0, i32 0, i32 0, i32 0
  %_M_start.i = getelementptr inbounds %class.CAmbisonicEncoder, %class.CAmbisonicEncoder* %this, i64 0, i32 0, i32 1, i32 0, i32 0, i32 0
  %2 = zext i32 %1 to i64
  %.pre = load float*, float** %_M_start.i, align 8, !tbaa !116
  %.pre28 = load float**, float*** %_M_head_impl.i.i.i.i.i.i, align 8, !tbaa !76
  %wide.trip.count = zext i32 %nSamples to i64
  %3 = add nsw i64 %wide.trip.count, -1
  %xtraiter = and i64 %wide.trip.count, 3
  %4 = icmp ult i64 %3, 3
  %unroll_iter = sub nsw i64 %wide.trip.count, %xtraiter
  %lcmp.mod = icmp eq i64 %xtraiter, 0
  br label %for.cond2.preheader.us

for.cond2.preheader.us:                           ; preds = %for.cond2.for.inc9_crit_edge.us, %for.cond2.preheader.us.preheader
  %indvars.iv26 = phi i64 [ 0, %for.cond2.preheader.us.preheader ], [ %indvars.iv.next27, %for.cond2.for.inc9_crit_edge.us ]
  %add.ptr.i.us = getelementptr inbounds float, float* %.pre, i64 %indvars.iv26
  %arrayidx.i.us = getelementptr inbounds float*, float** %.pre28, i64 %indvars.iv26
  %5 = load float*, float** %arrayidx.i.us, align 8, !tbaa !76
  br i1 %4, label %for.cond2.for.inc9_crit_edge.us.unr-lcssa, label %for.body4.us

for.body4.us:                                     ; preds = %for.body4.us, %for.cond2.preheader.us
  %indvars.iv = phi i64 [ %indvars.iv.next.3, %for.body4.us ], [ 0, %for.cond2.preheader.us ]
  %niter = phi i64 [ %niter.nsub.3, %for.body4.us ], [ %unroll_iter, %for.cond2.preheader.us ]
  %arrayidx.us = getelementptr inbounds float, float* %pfSrc, i64 %indvars.iv
  %6 = load float, float* %arrayidx.us, align 4, !tbaa !83
  %7 = load float, float* %add.ptr.i.us, align 4, !tbaa !83
  %mul.us = fmul float %6, %7
  %arrayidx8.us = getelementptr inbounds float, float* %5, i64 %indvars.iv
  store float %mul.us, float* %arrayidx8.us, align 4, !tbaa !83
  %indvars.iv.next = or i64 %indvars.iv, 1
  %arrayidx.us.1 = getelementptr inbounds float, float* %pfSrc, i64 %indvars.iv.next
  %8 = load float, float* %arrayidx.us.1, align 4, !tbaa !83
  %9 = load float, float* %add.ptr.i.us, align 4, !tbaa !83
  %mul.us.1 = fmul float %8, %9
  %arrayidx8.us.1 = getelementptr inbounds float, float* %5, i64 %indvars.iv.next
  store float %mul.us.1, float* %arrayidx8.us.1, align 4, !tbaa !83
  %indvars.iv.next.1 = or i64 %indvars.iv, 2
  %arrayidx.us.2 = getelementptr inbounds float, float* %pfSrc, i64 %indvars.iv.next.1
  %10 = load float, float* %arrayidx.us.2, align 4, !tbaa !83
  %11 = load float, float* %add.ptr.i.us, align 4, !tbaa !83
  %mul.us.2 = fmul float %10, %11
  %arrayidx8.us.2 = getelementptr inbounds float, float* %5, i64 %indvars.iv.next.1
  store float %mul.us.2, float* %arrayidx8.us.2, align 4, !tbaa !83
  %indvars.iv.next.2 = or i64 %indvars.iv, 3
  %arrayidx.us.3 = getelementptr inbounds float, float* %pfSrc, i64 %indvars.iv.next.2
  %12 = load float, float* %arrayidx.us.3, align 4, !tbaa !83
  %13 = load float, float* %add.ptr.i.us, align 4, !tbaa !83
  %mul.us.3 = fmul float %12, %13
  %arrayidx8.us.3 = getelementptr inbounds float, float* %5, i64 %indvars.iv.next.2
  store float %mul.us.3, float* %arrayidx8.us.3, align 4, !tbaa !83
  %indvars.iv.next.3 = add nuw nsw i64 %indvars.iv, 4
  %niter.nsub.3 = add i64 %niter, -4
  %niter.ncmp.3 = icmp eq i64 %niter.nsub.3, 0
  br i1 %niter.ncmp.3, label %for.cond2.for.inc9_crit_edge.us.unr-lcssa, label %for.body4.us

for.cond2.for.inc9_crit_edge.us.unr-lcssa:        ; preds = %for.body4.us, %for.cond2.preheader.us
  %indvars.iv.unr = phi i64 [ 0, %for.cond2.preheader.us ], [ %indvars.iv.next.3, %for.body4.us ]
  br i1 %lcmp.mod, label %for.cond2.for.inc9_crit_edge.us, label %for.body4.us.epil

for.body4.us.epil:                                ; preds = %for.body4.us.epil, %for.cond2.for.inc9_crit_edge.us.unr-lcssa
  %indvars.iv.epil = phi i64 [ %indvars.iv.next.epil, %for.body4.us.epil ], [ %indvars.iv.unr, %for.cond2.for.inc9_crit_edge.us.unr-lcssa ]
  %epil.iter = phi i64 [ %epil.iter.sub, %for.body4.us.epil ], [ %xtraiter, %for.cond2.for.inc9_crit_edge.us.unr-lcssa ]
  %arrayidx.us.epil = getelementptr inbounds float, float* %pfSrc, i64 %indvars.iv.epil
  %14 = load float, float* %arrayidx.us.epil, align 4, !tbaa !83
  %15 = load float, float* %add.ptr.i.us, align 4, !tbaa !83
  %mul.us.epil = fmul float %14, %15
  %arrayidx8.us.epil = getelementptr inbounds float, float* %5, i64 %indvars.iv.epil
  store float %mul.us.epil, float* %arrayidx8.us.epil, align 4, !tbaa !83
  %indvars.iv.next.epil = add nuw nsw i64 %indvars.iv.epil, 1
  %epil.iter.sub = add i64 %epil.iter, -1
  %epil.iter.cmp = icmp eq i64 %epil.iter.sub, 0
  br i1 %epil.iter.cmp, label %for.cond2.for.inc9_crit_edge.us, label %for.body4.us.epil, !llvm.loop !157

for.cond2.for.inc9_crit_edge.us:                  ; preds = %for.body4.us.epil, %for.cond2.for.inc9_crit_edge.us.unr-lcssa
  %indvars.iv.next27 = add nuw nsw i64 %indvars.iv26, 1
  %cmp.us = icmp ult i64 %indvars.iv.next27, %2
  br i1 %cmp.us, label %for.cond2.preheader.us, label %for.end11

for.end11:                                        ; preds = %for.cond2.for.inc9_crit_edge.us, %entry
  ret void
}

; Function Attrs: uwtable
define void @_ZN21CAmbisonicEncoderDistC2Ev(%class.CAmbisonicEncoderDist* %this) unnamed_addr #3 align 2 personality i8* bitcast (i32 (...)* @__gxx_personality_v0 to i8*) !prof !146 {
entry:
  %ref.tmp.i.i = alloca float, align 4
  %ref.tmp5.i.i = alloca float, align 4
  %0 = getelementptr inbounds %class.CAmbisonicEncoderDist, %class.CAmbisonicEncoderDist* %this, i64 0, i32 0, i32 0, i32 0, i32 1
  %1 = getelementptr inbounds %class.CAmbisonicEncoderDist, %class.CAmbisonicEncoderDist* %this, i64 0, i32 0, i32 0, i32 0, i32 2
  %2 = getelementptr inbounds %class.CAmbisonicEncoderDist, %class.CAmbisonicEncoderDist* %this, i64 0, i32 0, i32 0, i32 0, i32 4
  store i32 0, i32* %2, align 8, !tbaa !101
  %3 = getelementptr inbounds %class.CAmbisonicEncoderDist, %class.CAmbisonicEncoderDist* %this, i64 0, i32 0, i32 0, i32 0, i32 5
  store i8 0, i8* %3, align 4, !tbaa !102
  %m_pfCoeff.i.i = getelementptr inbounds %class.CAmbisonicEncoderDist, %class.CAmbisonicEncoderDist* %this, i64 0, i32 0, i32 0, i32 1
  %fDistance.i.i = getelementptr inbounds %class.CAmbisonicEncoderDist, %class.CAmbisonicEncoderDist* %this, i64 0, i32 0, i32 0, i32 3, i32 2
  %4 = bitcast %"class.std::vector.0"* %m_pfCoeff.i.i to i8*
  tail call void @llvm.memset.p0i8.i64(i8* nonnull align 8 %4, i8 0, i64 56, i1 false) #24
  store float 1.000000e+00, float* %fDistance.i.i, align 8, !tbaa !107
  %m_fGain.i.i = getelementptr inbounds %class.CAmbisonicEncoderDist, %class.CAmbisonicEncoderDist* %this, i64 0, i32 0, i32 0, i32 4
  store float 1.000000e+00, float* %m_fGain.i.i, align 4, !tbaa !111
  %5 = getelementptr inbounds %class.CAmbisonicEncoderDist, %class.CAmbisonicEncoderDist* %this, i64 0, i32 0, i32 0, i32 0, i32 0
  store i32 (...)** bitcast (i8** getelementptr inbounds ({ [16 x i8*] }, { [16 x i8*] }* @_ZTV21CAmbisonicEncoderDist, i64 0, inrange i32 0, i64 2) to i32 (...)**), i32 (...)*** %5, align 8, !tbaa !68
  %m_nSampleRate = getelementptr inbounds %class.CAmbisonicEncoderDist, %class.CAmbisonicEncoderDist* %this, i64 0, i32 1
  %m_fRoomRadius = getelementptr inbounds %class.CAmbisonicEncoderDist, %class.CAmbisonicEncoderDist* %this, i64 0, i32 9
  %6 = bitcast i32* %m_nSampleRate to i8*
  tail call void @llvm.memset.p0i8.i64(i8* nonnull align 8 %6, i8 0, i64 36, i1 false)
  store float 5.000000e+00, float* %m_fRoomRadius, align 4, !tbaa !158
  %m_fInteriorGain = getelementptr inbounds %class.CAmbisonicEncoderDist, %class.CAmbisonicEncoderDist* %this, i64 0, i32 10
  store float 0.000000e+00, float* %m_fInteriorGain, align 8, !tbaa !160
  %m_fExteriorGain = getelementptr inbounds %class.CAmbisonicEncoderDist, %class.CAmbisonicEncoderDist* %this, i64 0, i32 11
  store float 0.000000e+00, float* %m_fExteriorGain, align 4, !tbaa !161
  %7 = getelementptr inbounds %class.CAmbisonicEncoderDist, %class.CAmbisonicEncoderDist* %this, i64 0, i32 0
  store i32 1, i32* %0, align 8, !tbaa !97
  store i8 1, i8* %1, align 4, !tbaa !100
  %call.i.i.i6 = invoke i32 @_Z17OrderToComponentsjb(i32 1, i1 zeroext true)
          to label %call.i.i.i.noexc unwind label %lpad

call.i.i.i.noexc:                                 ; preds = %entry
  store i32 %call.i.i.i6, i32* %2, align 8, !tbaa !101
  %conv.i.i = zext i32 %call.i.i.i6 to i64
  %8 = bitcast float* %ref.tmp.i.i to i8*
  call void @llvm.lifetime.start.p0i8(i64 4, i8* nonnull %8) #24
  store float 0.000000e+00, float* %ref.tmp.i.i, align 4, !tbaa !83
  %_M_finish.i.i.i.i = getelementptr inbounds %class.CAmbisonicEncoderDist, %class.CAmbisonicEncoderDist* %this, i64 0, i32 0, i32 0, i32 1, i32 0, i32 0, i32 1
  %9 = bitcast float** %_M_finish.i.i.i.i to i64*
  %10 = load i64, i64* %9, align 8, !tbaa !113
  %11 = bitcast %"class.std::vector.0"* %m_pfCoeff.i.i to i64*
  %12 = load i64, i64* %11, align 8, !tbaa !116
  %sub.ptr.sub.i.i.i.i = sub i64 %10, %12
  %sub.ptr.div.i.i.i.i = ashr exact i64 %sub.ptr.sub.i.i.i.i, 2
  %cmp.i.i.i = icmp ult i64 %sub.ptr.div.i.i.i.i, %conv.i.i
  %13 = inttoptr i64 %12 to float*
  br i1 %cmp.i.i.i, label %if.then.i.i.i, label %if.else.i.i.i, !prof !117

if.then.i.i.i:                                    ; preds = %call.i.i.i.noexc
  %14 = inttoptr i64 %10 to float*
  %sub.i.i.i = sub nsw i64 %conv.i.i, %sub.ptr.div.i.i.i.i
  invoke void @_ZNSt6vectorIfSaIfEE14_M_fill_insertEN9__gnu_cxx17__normal_iteratorIPfS1_EEmRKf(%"class.std::vector.0"* nonnull %m_pfCoeff.i.i, float* %14, i64 %sub.i.i.i, float* nonnull dereferenceable(4) %ref.tmp.i.i)
          to label %_ZNSt6vectorIfSaIfEE6resizeEmRKf.exit.i.i unwind label %lpad

if.else.i.i.i:                                    ; preds = %call.i.i.i.noexc
  %cmp8.i.i.i = icmp ugt i64 %sub.ptr.div.i.i.i.i, %conv.i.i
  br i1 %cmp8.i.i.i, label %if.then9.i.i.i, label %_ZNSt6vectorIfSaIfEE6resizeEmRKf.exit.i.i

if.then9.i.i.i:                                   ; preds = %if.else.i.i.i
  %add.ptr.i.i.i = getelementptr inbounds float, float* %13, i64 %conv.i.i
  store float* %add.ptr.i.i.i, float** %_M_finish.i.i.i.i, align 8, !tbaa !113
  br label %_ZNSt6vectorIfSaIfEE6resizeEmRKf.exit.i.i

_ZNSt6vectorIfSaIfEE6resizeEmRKf.exit.i.i:        ; preds = %if.then9.i.i.i, %if.else.i.i.i, %if.then.i.i.i
  call void @llvm.lifetime.end.p0i8(i64 4, i8* nonnull %8) #24
  %m_pfOrderWeights.i.i = getelementptr inbounds %class.CAmbisonicEncoderDist, %class.CAmbisonicEncoderDist* %this, i64 0, i32 0, i32 0, i32 2
  %15 = load i32, i32* %0, align 8, !tbaa !97
  %add.i.i = add i32 %15, 1
  %conv4.i.i = zext i32 %add.i.i to i64
  %16 = bitcast float* %ref.tmp5.i.i to i8*
  call void @llvm.lifetime.start.p0i8(i64 4, i8* nonnull %16) #24
  store float 1.000000e+00, float* %ref.tmp5.i.i, align 4, !tbaa !83
  %_M_finish.i.i6.i.i = getelementptr inbounds %class.CAmbisonicEncoderDist, %class.CAmbisonicEncoderDist* %this, i64 0, i32 0, i32 0, i32 2, i32 0, i32 0, i32 1
  %17 = bitcast float** %_M_finish.i.i6.i.i to i64*
  %18 = load i64, i64* %17, align 8, !tbaa !113
  %19 = bitcast %"class.std::vector.0"* %m_pfOrderWeights.i.i to i64*
  %20 = load i64, i64* %19, align 8, !tbaa !116
  %sub.ptr.sub.i.i7.i.i = sub i64 %18, %20
  %sub.ptr.div.i.i8.i.i = ashr exact i64 %sub.ptr.sub.i.i7.i.i, 2
  %cmp.i9.i.i = icmp ult i64 %sub.ptr.div.i.i8.i.i, %conv4.i.i
  %21 = inttoptr i64 %20 to float*
  br i1 %cmp.i9.i.i, label %if.then.i11.i.i, label %if.else.i13.i.i, !prof !117

if.then.i11.i.i:                                  ; preds = %_ZNSt6vectorIfSaIfEE6resizeEmRKf.exit.i.i
  %22 = inttoptr i64 %18 to float*
  %sub.i10.i.i = sub nsw i64 %conv4.i.i, %sub.ptr.div.i.i8.i.i
  invoke void @_ZNSt6vectorIfSaIfEE14_M_fill_insertEN9__gnu_cxx17__normal_iteratorIPfS1_EEmRKf(%"class.std::vector.0"* nonnull %m_pfOrderWeights.i.i, float* %22, i64 %sub.i10.i.i, float* nonnull dereferenceable(4) %ref.tmp5.i.i)
          to label %call.i.noexc unwind label %lpad

if.else.i13.i.i:                                  ; preds = %_ZNSt6vectorIfSaIfEE6resizeEmRKf.exit.i.i
  %cmp8.i12.i.i = icmp ugt i64 %sub.ptr.div.i.i8.i.i, %conv4.i.i
  br i1 %cmp8.i12.i.i, label %if.then9.i15.i.i, label %call.i.noexc

if.then9.i15.i.i:                                 ; preds = %if.else.i13.i.i
  %add.ptr.i14.i.i = getelementptr inbounds float, float* %21, i64 %conv4.i.i
  store float* %add.ptr.i14.i.i, float** %_M_finish.i.i6.i.i, align 8, !tbaa !113
  br label %call.i.noexc

call.i.noexc:                                     ; preds = %if.then9.i15.i.i, %if.else.i13.i.i, %if.then.i11.i.i
  call void @llvm.lifetime.end.p0i8(i64 4, i8* nonnull %16) #24
  store i32 44100, i32* %m_nSampleRate, align 8, !tbaa !162
  %m_nDelayBufferLength.i = getelementptr inbounds %class.CAmbisonicEncoderDist, %class.CAmbisonicEncoderDist* %this, i64 0, i32 4
  store i32 19230, i32* %m_nDelayBufferLength.i, align 4, !tbaa !163
  %m_pfDelayBuffer.i = getelementptr inbounds %class.CAmbisonicEncoderDist, %class.CAmbisonicEncoderDist* %this, i64 0, i32 5
  %23 = load float*, float** %m_pfDelayBuffer.i, align 8, !tbaa !164
  %tobool6.i = icmp eq float* %23, null
  br i1 %tobool6.i, label %if.end9.i, label %delete.notnull.i, !prof !165

delete.notnull.i:                                 ; preds = %call.i.noexc
  %24 = bitcast float* %23 to i8*
  call void @_ZdaPv(i8* %24) #26
  %.pre = load i32, i32* %m_nDelayBufferLength.i, align 4, !tbaa !163
  %phitmp = zext i32 %.pre to i64
  %phitmp8 = shl nuw nsw i64 %phitmp, 2
  br label %if.end9.i

if.end9.i:                                        ; preds = %delete.notnull.i, %call.i.noexc
  %25 = phi i64 [ %phitmp8, %delete.notnull.i ], [ 76920, %call.i.noexc ]
  %call12.i4 = invoke i8* @_Znam(i64 %25) #25
          to label %call12.i.noexc unwind label %lpad

call12.i.noexc:                                   ; preds = %if.end9.i
  %26 = bitcast float** %m_pfDelayBuffer.i to i8**
  store i8* %call12.i4, i8** %26, align 8, !tbaa !164
  %27 = bitcast %class.CAmbisonicEncoderDist* %this to void (%class.CAmbisonicEncoderDist*)***
  %vtable.i = load void (%class.CAmbisonicEncoderDist*)**, void (%class.CAmbisonicEncoderDist*)*** %27, align 8, !tbaa !68
  %vfn.i = getelementptr inbounds void (%class.CAmbisonicEncoderDist*)*, void (%class.CAmbisonicEncoderDist*)** %vtable.i, i64 3
  %28 = load void (%class.CAmbisonicEncoderDist*)*, void (%class.CAmbisonicEncoderDist*)** %vfn.i, align 8
  invoke void %28(%class.CAmbisonicEncoderDist* nonnull %this)
          to label %invoke.cont unwind label %lpad

invoke.cont:                                      ; preds = %call12.i.noexc
  ret void

lpad:                                             ; preds = %call12.i.noexc, %if.end9.i, %if.then.i11.i.i, %if.then.i.i.i, %entry
  %29 = landingpad { i8*, i32 }
          cleanup
  tail call void @_ZN17CAmbisonicEncoderD2Ev(%class.CAmbisonicEncoder* %7) #24
  resume { i8*, i32 } %29
}

; Function Attrs: nounwind uwtable
define void @_ZN21CAmbisonicEncoderDistD2Ev(%class.CAmbisonicEncoderDist* nocapture %this) unnamed_addr #7 align 2 !prof !103 {
entry:
  %0 = getelementptr inbounds %class.CAmbisonicEncoderDist, %class.CAmbisonicEncoderDist* %this, i64 0, i32 0, i32 0, i32 0, i32 0
  store i32 (...)** bitcast (i8** getelementptr inbounds ({ [16 x i8*] }, { [16 x i8*] }* @_ZTV21CAmbisonicEncoderDist, i64 0, inrange i32 0, i64 2) to i32 (...)**), i32 (...)*** %0, align 8, !tbaa !68
  %m_pfDelayBuffer = getelementptr inbounds %class.CAmbisonicEncoderDist, %class.CAmbisonicEncoderDist* %this, i64 0, i32 5
  %1 = load float*, float** %m_pfDelayBuffer, align 8, !tbaa !164
  %tobool = icmp eq float* %1, null
  br i1 %tobool, label %if.end, label %delete.notnull

delete.notnull:                                   ; preds = %entry
  %2 = bitcast float* %1 to i8*
  tail call void @_ZdaPv(i8* %2) #26
  br label %if.end

if.end:                                           ; preds = %delete.notnull, %entry
  %3 = getelementptr inbounds %class.CAmbisonicEncoderDist, %class.CAmbisonicEncoderDist* %this, i64 0, i32 0
  tail call void @_ZN17CAmbisonicEncoderD2Ev(%class.CAmbisonicEncoder* %3) #24
  ret void
}

; Function Attrs: nobuiltin nounwind
declare void @_ZdaPv(i8*) local_unnamed_addr #14

; Function Attrs: nounwind uwtable
define void @_ZN21CAmbisonicEncoderDistD0Ev(%class.CAmbisonicEncoderDist* %this) unnamed_addr #7 align 2 {
entry:
  tail call void @_ZN21CAmbisonicEncoderDistD2Ev(%class.CAmbisonicEncoderDist* %this) #24
  %0 = bitcast %class.CAmbisonicEncoderDist* %this to i8*
  tail call void @_ZdlPv(i8* %0) #26
  ret void
}

; Function Attrs: uwtable
define zeroext i1 @_ZN21CAmbisonicEncoderDist9ConfigureEjbj(%class.CAmbisonicEncoderDist* %this, i32 %nOrder, i1 zeroext %b3D, i32 %nSampleRate) unnamed_addr #3 align 2 personality i32 (...)* @__gxx_personality_v0 !prof !166 {
entry:
  %ref.tmp.i.i = alloca float, align 4
  %ref.tmp5.i.i = alloca float, align 4
  %frombool.i.i.i = zext i1 %b3D to i8
  %0 = getelementptr inbounds %class.CAmbisonicEncoderDist, %class.CAmbisonicEncoderDist* %this, i64 0, i32 0, i32 0, i32 0, i32 1
  store i32 %nOrder, i32* %0, align 8, !tbaa !97
  %1 = getelementptr inbounds %class.CAmbisonicEncoderDist, %class.CAmbisonicEncoderDist* %this, i64 0, i32 0, i32 0, i32 0, i32 2
  store i8 %frombool.i.i.i, i8* %1, align 4, !tbaa !100
  %call.i.i.i = tail call i32 @_Z17OrderToComponentsjb(i32 %nOrder, i1 zeroext %b3D)
  %2 = getelementptr inbounds %class.CAmbisonicEncoderDist, %class.CAmbisonicEncoderDist* %this, i64 0, i32 0, i32 0, i32 0, i32 4
  store i32 %call.i.i.i, i32* %2, align 8, !tbaa !101
  %m_pfCoeff.i.i = getelementptr inbounds %class.CAmbisonicEncoderDist, %class.CAmbisonicEncoderDist* %this, i64 0, i32 0, i32 0, i32 1
  %conv.i.i = zext i32 %call.i.i.i to i64
  %3 = bitcast float* %ref.tmp.i.i to i8*
  call void @llvm.lifetime.start.p0i8(i64 4, i8* nonnull %3) #24
  store float 0.000000e+00, float* %ref.tmp.i.i, align 4, !tbaa !83
  %_M_finish.i.i.i.i = getelementptr inbounds %class.CAmbisonicEncoderDist, %class.CAmbisonicEncoderDist* %this, i64 0, i32 0, i32 0, i32 1, i32 0, i32 0, i32 1
  %4 = bitcast float** %_M_finish.i.i.i.i to i64*
  %5 = load i64, i64* %4, align 8, !tbaa !113
  %6 = bitcast %"class.std::vector.0"* %m_pfCoeff.i.i to i64*
  %7 = load i64, i64* %6, align 8, !tbaa !116
  %sub.ptr.sub.i.i.i.i = sub i64 %5, %7
  %sub.ptr.div.i.i.i.i = ashr exact i64 %sub.ptr.sub.i.i.i.i, 2
  %cmp.i.i.i = icmp ult i64 %sub.ptr.div.i.i.i.i, %conv.i.i
  %8 = inttoptr i64 %7 to float*
  br i1 %cmp.i.i.i, label %if.then.i.i.i, label %if.else.i.i.i, !prof !117

if.then.i.i.i:                                    ; preds = %entry
  %9 = inttoptr i64 %5 to float*
  %sub.i.i.i = sub nsw i64 %conv.i.i, %sub.ptr.div.i.i.i.i
  call void @_ZNSt6vectorIfSaIfEE14_M_fill_insertEN9__gnu_cxx17__normal_iteratorIPfS1_EEmRKf(%"class.std::vector.0"* nonnull %m_pfCoeff.i.i, float* %9, i64 %sub.i.i.i, float* nonnull dereferenceable(4) %ref.tmp.i.i)
  br label %_ZNSt6vectorIfSaIfEE6resizeEmRKf.exit.i.i

if.else.i.i.i:                                    ; preds = %entry
  %cmp8.i.i.i = icmp ugt i64 %sub.ptr.div.i.i.i.i, %conv.i.i
  br i1 %cmp8.i.i.i, label %if.then9.i.i.i, label %_ZNSt6vectorIfSaIfEE6resizeEmRKf.exit.i.i

if.then9.i.i.i:                                   ; preds = %if.else.i.i.i
  %add.ptr.i.i.i = getelementptr inbounds float, float* %8, i64 %conv.i.i
  store float* %add.ptr.i.i.i, float** %_M_finish.i.i.i.i, align 8, !tbaa !113
  br label %_ZNSt6vectorIfSaIfEE6resizeEmRKf.exit.i.i

_ZNSt6vectorIfSaIfEE6resizeEmRKf.exit.i.i:        ; preds = %if.then9.i.i.i, %if.else.i.i.i, %if.then.i.i.i
  call void @llvm.lifetime.end.p0i8(i64 4, i8* nonnull %3) #24
  %m_pfOrderWeights.i.i = getelementptr inbounds %class.CAmbisonicEncoderDist, %class.CAmbisonicEncoderDist* %this, i64 0, i32 0, i32 0, i32 2
  %10 = load i32, i32* %0, align 8, !tbaa !97
  %add.i.i = add i32 %10, 1
  %conv4.i.i = zext i32 %add.i.i to i64
  %11 = bitcast float* %ref.tmp5.i.i to i8*
  call void @llvm.lifetime.start.p0i8(i64 4, i8* nonnull %11) #24
  store float 1.000000e+00, float* %ref.tmp5.i.i, align 4, !tbaa !83
  %_M_finish.i.i6.i.i = getelementptr inbounds %class.CAmbisonicEncoderDist, %class.CAmbisonicEncoderDist* %this, i64 0, i32 0, i32 0, i32 2, i32 0, i32 0, i32 1
  %12 = bitcast float** %_M_finish.i.i6.i.i to i64*
  %13 = load i64, i64* %12, align 8, !tbaa !113
  %14 = bitcast %"class.std::vector.0"* %m_pfOrderWeights.i.i to i64*
  %15 = load i64, i64* %14, align 8, !tbaa !116
  %sub.ptr.sub.i.i7.i.i = sub i64 %13, %15
  %sub.ptr.div.i.i8.i.i = ashr exact i64 %sub.ptr.sub.i.i7.i.i, 2
  %cmp.i9.i.i = icmp ult i64 %sub.ptr.div.i.i8.i.i, %conv4.i.i
  %16 = inttoptr i64 %15 to float*
  br i1 %cmp.i9.i.i, label %if.then.i11.i.i, label %if.else.i13.i.i, !prof !117

if.then.i11.i.i:                                  ; preds = %_ZNSt6vectorIfSaIfEE6resizeEmRKf.exit.i.i
  %17 = inttoptr i64 %13 to float*
  %sub.i10.i.i = sub nsw i64 %conv4.i.i, %sub.ptr.div.i.i8.i.i
  call void @_ZNSt6vectorIfSaIfEE14_M_fill_insertEN9__gnu_cxx17__normal_iteratorIPfS1_EEmRKf(%"class.std::vector.0"* nonnull %m_pfOrderWeights.i.i, float* %17, i64 %sub.i10.i.i, float* nonnull dereferenceable(4) %ref.tmp5.i.i)
  br label %_ZN17CAmbisonicEncoder9ConfigureEjbj.exit

if.else.i13.i.i:                                  ; preds = %_ZNSt6vectorIfSaIfEE6resizeEmRKf.exit.i.i
  %cmp8.i12.i.i = icmp ugt i64 %sub.ptr.div.i.i8.i.i, %conv4.i.i
  br i1 %cmp8.i12.i.i, label %if.then9.i15.i.i, label %_ZN17CAmbisonicEncoder9ConfigureEjbj.exit

if.then9.i15.i.i:                                 ; preds = %if.else.i13.i.i
  %add.ptr.i14.i.i = getelementptr inbounds float, float* %16, i64 %conv4.i.i
  store float* %add.ptr.i14.i.i, float** %_M_finish.i.i6.i.i, align 8, !tbaa !113
  br label %_ZN17CAmbisonicEncoder9ConfigureEjbj.exit

_ZN17CAmbisonicEncoder9ConfigureEjbj.exit:        ; preds = %if.then9.i15.i.i, %if.else.i13.i.i, %if.then.i11.i.i
  call void @llvm.lifetime.end.p0i8(i64 4, i8* nonnull %11) #24
  %m_nSampleRate = getelementptr inbounds %class.CAmbisonicEncoderDist, %class.CAmbisonicEncoderDist* %this, i64 0, i32 1
  store i32 %nSampleRate, i32* %m_nSampleRate, align 8, !tbaa !162
  %conv = uitofp i32 %nSampleRate to float
  %mul = fmul float %conv, 0x3FDBE82FA0000000
  %add = fadd float %mul, 5.000000e-01
  %conv5 = fptoui float %add to i32
  %m_nDelayBufferLength = getelementptr inbounds %class.CAmbisonicEncoderDist, %class.CAmbisonicEncoderDist* %this, i64 0, i32 4
  store i32 %conv5, i32* %m_nDelayBufferLength, align 4, !tbaa !163
  %m_pfDelayBuffer = getelementptr inbounds %class.CAmbisonicEncoderDist, %class.CAmbisonicEncoderDist* %this, i64 0, i32 5
  %18 = load float*, float** %m_pfDelayBuffer, align 8, !tbaa !164
  %tobool6 = icmp eq float* %18, null
  br i1 %tobool6, label %if.end9, label %delete.notnull, !prof !165

delete.notnull:                                   ; preds = %_ZN17CAmbisonicEncoder9ConfigureEjbj.exit
  %19 = bitcast float* %18 to i8*
  call void @_ZdaPv(i8* %19) #26
  %.pre = load i32, i32* %m_nDelayBufferLength, align 4, !tbaa !163
  br label %if.end9

if.end9:                                          ; preds = %delete.notnull, %_ZN17CAmbisonicEncoder9ConfigureEjbj.exit
  %20 = phi i32 [ %conv5, %_ZN17CAmbisonicEncoder9ConfigureEjbj.exit ], [ %.pre, %delete.notnull ]
  %conv11 = zext i32 %20 to i64
  %21 = shl nuw nsw i64 %conv11, 2
  %call12 = call i8* @_Znam(i64 %21) #25
  %22 = bitcast float** %m_pfDelayBuffer to i8**
  store i8* %call12, i8** %22, align 8, !tbaa !164
  %23 = bitcast %class.CAmbisonicEncoderDist* %this to void (%class.CAmbisonicEncoderDist*)***
  %vtable = load void (%class.CAmbisonicEncoderDist*)**, void (%class.CAmbisonicEncoderDist*)*** %23, align 8, !tbaa !68
  %vfn = getelementptr inbounds void (%class.CAmbisonicEncoderDist*)*, void (%class.CAmbisonicEncoderDist*)** %vtable, i64 3
  %24 = load void (%class.CAmbisonicEncoderDist*)*, void (%class.CAmbisonicEncoderDist*)** %vfn, align 8
  call void %24(%class.CAmbisonicEncoderDist* nonnull %this)
  ret i1 true
}

; Function Attrs: nounwind uwtable
define void @_ZN21CAmbisonicEncoderDist5ResetEv(%class.CAmbisonicEncoderDist* nocapture %this) unnamed_addr #7 align 2 !prof !166 {
entry:
  %m_pfDelayBuffer = getelementptr inbounds %class.CAmbisonicEncoderDist, %class.CAmbisonicEncoderDist* %this, i64 0, i32 5
  %0 = bitcast float** %m_pfDelayBuffer to i8**
  %1 = load i8*, i8** %0, align 8, !tbaa !164
  %m_nDelayBufferLength = getelementptr inbounds %class.CAmbisonicEncoderDist, %class.CAmbisonicEncoderDist* %this, i64 0, i32 4
  %2 = load i32, i32* %m_nDelayBufferLength, align 4, !tbaa !163
  %conv = zext i32 %2 to i64
  %mul = shl nuw nsw i64 %conv, 2
  tail call void @llvm.memset.p0i8.i64(i8* align 4 %1, i8 0, i64 %mul, i1 false)
  %fDistance = getelementptr inbounds %class.CAmbisonicEncoderDist, %class.CAmbisonicEncoderDist* %this, i64 0, i32 0, i32 0, i32 3, i32 2
  %3 = load float, float* %fDistance, align 8, !tbaa !107
  %div = fdiv float %3, 3.440000e+02
  %m_nSampleRate = getelementptr inbounds %class.CAmbisonicEncoderDist, %class.CAmbisonicEncoderDist* %this, i64 0, i32 1
  %4 = load i32, i32* %m_nSampleRate, align 8, !tbaa !162
  %conv2 = uitofp i32 %4 to float
  %mul3 = fmul float %div, %conv2
  %add = fadd float %mul3, 5.000000e-01
  %m_fDelay = getelementptr inbounds %class.CAmbisonicEncoderDist, %class.CAmbisonicEncoderDist* %this, i64 0, i32 2
  %conv5 = fptosi float %add to i32
  %m_nDelay = getelementptr inbounds %class.CAmbisonicEncoderDist, %class.CAmbisonicEncoderDist* %this, i64 0, i32 3
  store i32 %conv5, i32* %m_nDelay, align 8, !tbaa !167
  %conv7 = sitofp i32 %conv5 to float
  %sub = fsub float %add, %conv7
  store float %sub, float* %m_fDelay, align 4, !tbaa !168
  %m_nIn = getelementptr inbounds %class.CAmbisonicEncoderDist, %class.CAmbisonicEncoderDist* %this, i64 0, i32 6
  store i32 0, i32* %m_nIn, align 8, !tbaa !169
  %5 = load i32, i32* %m_nDelayBufferLength, align 4, !tbaa !163
  %add13 = sub i32 %5, %conv5
  %rem = urem i32 %add13, %5
  %m_nOutA = getelementptr inbounds %class.CAmbisonicEncoderDist, %class.CAmbisonicEncoderDist* %this, i64 0, i32 7
  store i32 %rem, i32* %m_nOutA, align 4, !tbaa !170
  %add16 = add nuw nsw i32 %rem, 1
  %rem18 = urem i32 %add16, %5
  %m_nOutB = getelementptr inbounds %class.CAmbisonicEncoderDist, %class.CAmbisonicEncoderDist* %this, i64 0, i32 8
  store i32 %rem18, i32* %m_nOutB, align 8, !tbaa !171
  ret void
}

; Function Attrs: nofree nounwind uwtable
define void @_ZN21CAmbisonicEncoderDist7RefreshEv(%class.CAmbisonicEncoderDist* %this) unnamed_addr #9 align 2 !prof !172 {
entry:
  %0 = getelementptr inbounds %class.CAmbisonicEncoderDist, %class.CAmbisonicEncoderDist* %this, i64 0, i32 0, i32 0
  tail call void @_ZN16CAmbisonicSource7RefreshEv(%class.CAmbisonicSource* %0) #24
  %fDistance = getelementptr inbounds %class.CAmbisonicEncoderDist, %class.CAmbisonicEncoderDist* %this, i64 0, i32 0, i32 0, i32 3, i32 2
  %1 = load float, float* %fDistance, align 8, !tbaa !107
  %2 = tail call float @llvm.fabs.f32(float %1)
  %3 = fpext float %2 to double
  %div = fdiv double %3, 3.440000e+02
  %m_nSampleRate = getelementptr inbounds %class.CAmbisonicEncoderDist, %class.CAmbisonicEncoderDist* %this, i64 0, i32 1
  %4 = load i32, i32* %m_nSampleRate, align 8, !tbaa !162
  %conv2 = uitofp i32 %4 to double
  %mul = fmul double %div, %conv2
  %conv3 = fptrunc double %mul to float
  %m_fDelay = getelementptr inbounds %class.CAmbisonicEncoderDist, %class.CAmbisonicEncoderDist* %this, i64 0, i32 2
  %conv5 = fptosi float %conv3 to i32
  %m_nDelay = getelementptr inbounds %class.CAmbisonicEncoderDist, %class.CAmbisonicEncoderDist* %this, i64 0, i32 3
  store i32 %conv5, i32* %m_nDelay, align 8, !tbaa !167
  %conv7 = sitofp i32 %conv5 to float
  %sub = fsub float %conv3, %conv7
  store float %sub, float* %m_fDelay, align 4, !tbaa !168
  %m_nIn = getelementptr inbounds %class.CAmbisonicEncoderDist, %class.CAmbisonicEncoderDist* %this, i64 0, i32 6
  %5 = load i32, i32* %m_nIn, align 8, !tbaa !169
  %sub10 = sub i32 %5, %conv5
  %m_nDelayBufferLength = getelementptr inbounds %class.CAmbisonicEncoderDist, %class.CAmbisonicEncoderDist* %this, i64 0, i32 4
  %6 = load i32, i32* %m_nDelayBufferLength, align 4, !tbaa !163
  %add = add i32 %sub10, %6
  %rem = urem i32 %add, %6
  %m_nOutA = getelementptr inbounds %class.CAmbisonicEncoderDist, %class.CAmbisonicEncoderDist* %this, i64 0, i32 7
  store i32 %rem, i32* %m_nOutA, align 4, !tbaa !170
  %add13 = add nuw nsw i32 %rem, 1
  %rem15 = urem i32 %add13, %6
  %m_nOutB = getelementptr inbounds %class.CAmbisonicEncoderDist, %class.CAmbisonicEncoderDist* %this, i64 0, i32 8
  store i32 %rem15, i32* %m_nOutB, align 8, !tbaa !171
  %m_fRoomRadius = getelementptr inbounds %class.CAmbisonicEncoderDist, %class.CAmbisonicEncoderDist* %this, i64 0, i32 9
  %7 = load float, float* %m_fRoomRadius, align 4, !tbaa !158
  %conv19 = fpext float %7 to double
  %cmp = fcmp ult float %2, %7
  br i1 %cmp, label %if.else, label %if.then, !prof !173

if.then:                                          ; preds = %entry
  %div25 = fdiv double %conv19, %3
  %div26 = fmul double %div25, 5.000000e-01
  %conv27 = fptrunc double %div26 to float
  br label %if.end

if.else:                                          ; preds = %entry
  %div34 = fdiv double %3, %conv19
  %sub35 = fsub double 2.000000e+00, %div34
  %div36 = fmul double %sub35, 5.000000e-01
  %conv37 = fptrunc double %div36 to float
  %div45 = fmul double %div34, 5.000000e-01
  %conv46 = fptrunc double %div45 to float
  br label %if.end

if.end:                                           ; preds = %if.else, %if.then
  %conv27.sink48 = phi float [ %conv37, %if.else ], [ %conv27, %if.then ]
  %conv27.sink = phi float [ %conv46, %if.else ], [ %conv27, %if.then ]
  %8 = getelementptr inbounds %class.CAmbisonicEncoderDist, %class.CAmbisonicEncoderDist* %this, i64 0, i32 10
  store float %conv27.sink48, float* %8, align 8
  %9 = getelementptr inbounds %class.CAmbisonicEncoderDist, %class.CAmbisonicEncoderDist* %this, i64 0, i32 11
  store float %conv27.sink, float* %9, align 4
  ret void
}

; Function Attrs: nofree norecurse nounwind uwtable
define void @_ZN21CAmbisonicEncoderDist7ProcessEPfjP8CBFormat(%class.CAmbisonicEncoderDist* nocapture %this, float* nocapture readonly %pfSrc, i32 %nSamples, %class.CBFormat* nocapture readonly %pfDst) local_unnamed_addr #12 align 2 !prof !103 {
entry:
  %cmp62 = icmp eq i32 %nSamples, 0
  br i1 %cmp62, label %for.end44, label %for.body.lr.ph

for.body.lr.ph:                                   ; preds = %entry
  %m_pfDelayBuffer = getelementptr inbounds %class.CAmbisonicEncoderDist, %class.CAmbisonicEncoderDist* %this, i64 0, i32 5
  %0 = load float*, float** %m_pfDelayBuffer, align 8, !tbaa !164
  %m_nIn = getelementptr inbounds %class.CAmbisonicEncoderDist, %class.CAmbisonicEncoderDist* %this, i64 0, i32 6
  %m_nOutA = getelementptr inbounds %class.CAmbisonicEncoderDist, %class.CAmbisonicEncoderDist* %this, i64 0, i32 7
  %m_fDelay = getelementptr inbounds %class.CAmbisonicEncoderDist, %class.CAmbisonicEncoderDist* %this, i64 0, i32 2
  %m_nOutB = getelementptr inbounds %class.CAmbisonicEncoderDist, %class.CAmbisonicEncoderDist* %this, i64 0, i32 8
  %m_fInteriorGain = getelementptr inbounds %class.CAmbisonicEncoderDist, %class.CAmbisonicEncoderDist* %this, i64 0, i32 10
  %_M_start.i = getelementptr inbounds %class.CAmbisonicEncoderDist, %class.CAmbisonicEncoderDist* %this, i64 0, i32 0, i32 0, i32 1, i32 0, i32 0, i32 0
  %1 = load float*, float** %_M_start.i, align 8, !tbaa !116
  %_M_head_impl.i.i.i.i.i.i59 = getelementptr inbounds %class.CBFormat, %class.CBFormat* %pfDst, i64 0, i32 4, i32 0, i32 0, i32 0, i32 0
  %2 = load float**, float*** %_M_head_impl.i.i.i.i.i.i59, align 8, !tbaa !76
  %3 = load float*, float** %2, align 8, !tbaa !76
  %m_fExteriorGain = getelementptr inbounds %class.CAmbisonicEncoderDist, %class.CAmbisonicEncoderDist* %this, i64 0, i32 11
  %4 = getelementptr inbounds %class.CAmbisonicEncoderDist, %class.CAmbisonicEncoderDist* %this, i64 0, i32 0, i32 0, i32 0, i32 4
  %5 = load i32, i32* %4, align 8, !tbaa !101
  %cmp1960 = icmp ugt i32 %5, 1
  %m_nDelayBufferLength = getelementptr inbounds %class.CAmbisonicEncoderDist, %class.CAmbisonicEncoderDist* %this, i64 0, i32 4
  %6 = load i32, i32* %m_nDelayBufferLength, align 4, !tbaa !163
  %m_nIn.promoted = load i32, i32* %m_nIn, align 8, !tbaa !169
  %m_nOutA.promoted = load i32, i32* %m_nOutA, align 4, !tbaa !170
  %m_nOutB.promoted = load i32, i32* %m_nOutB, align 8, !tbaa !171
  %wide.trip.count = zext i32 %nSamples to i64
  br i1 %cmp1960, label %for.body.us.preheader, label %for.body

for.body.us.preheader:                            ; preds = %for.body.lr.ph
  %7 = zext i32 %5 to i64
  %8 = add nsw i64 %7, -1
  %9 = add nsw i64 %7, -2
  %xtraiter = and i64 %8, 3
  %10 = icmp ult i64 %9, 3
  %unroll_iter = sub nsw i64 %8, %xtraiter
  %lcmp.mod = icmp eq i64 %xtraiter, 0
  br label %for.body.us

for.body.us:                                      ; preds = %for.cond18.for.end_crit_edge.us, %for.body.us.preheader
  %indvars.iv71 = phi i64 [ 0, %for.body.us.preheader ], [ %indvars.iv.next72, %for.cond18.for.end_crit_edge.us ]
  %rem4066.us = phi i32 [ %m_nOutB.promoted, %for.body.us.preheader ], [ %rem40.us, %for.cond18.for.end_crit_edge.us ]
  %rem3565.us = phi i32 [ %m_nOutA.promoted, %for.body.us.preheader ], [ %rem35.us, %for.cond18.for.end_crit_edge.us ]
  %rem64.us = phi i32 [ %m_nIn.promoted, %for.body.us.preheader ], [ %rem.us, %for.cond18.for.end_crit_edge.us ]
  %arrayidx.us = getelementptr inbounds float, float* %pfSrc, i64 %indvars.iv71
  %11 = bitcast float* %arrayidx.us to i32*
  %12 = load i32, i32* %11, align 4, !tbaa !83
  %idxprom2.us = sext i32 %rem64.us to i64
  %arrayidx3.us = getelementptr inbounds float, float* %0, i64 %idxprom2.us
  %13 = bitcast float* %arrayidx3.us to i32*
  store i32 %12, i32* %13, align 4, !tbaa !83
  %idxprom5.us = sext i32 %rem3565.us to i64
  %arrayidx6.us = getelementptr inbounds float, float* %0, i64 %idxprom5.us
  %14 = load float, float* %arrayidx6.us, align 4, !tbaa !83
  %15 = load float, float* %m_fDelay, align 4, !tbaa !168
  %sub.us = fsub float 1.000000e+00, %15
  %mul.us = fmul float %14, %sub.us
  %idxprom8.us = sext i32 %rem4066.us to i64
  %arrayidx9.us = getelementptr inbounds float, float* %0, i64 %idxprom8.us
  %16 = load float, float* %arrayidx9.us, align 4, !tbaa !83
  %mul11.us = fmul float %15, %16
  %add.us = fadd float %mul.us, %mul11.us
  %17 = load float, float* %m_fInteriorGain, align 8, !tbaa !160
  %mul12.us = fmul float %17, %add.us
  %18 = load float, float* %1, align 4, !tbaa !83
  %mul13.us = fmul float %mul12.us, %18
  %arrayidx16.us = getelementptr inbounds float, float* %3, i64 %indvars.iv71
  store float %mul13.us, float* %arrayidx16.us, align 4, !tbaa !83
  %19 = load float, float* %m_fExteriorGain, align 4, !tbaa !161
  %mul17.us = fmul float %add.us, %19
  br i1 %10, label %for.cond18.for.end_crit_edge.us.unr-lcssa, label %for.body20.us

for.body20.us:                                    ; preds = %for.body20.us, %for.body.us
  %indvars.iv = phi i64 [ %indvars.iv.next.3, %for.body20.us ], [ 1, %for.body.us ]
  %niter = phi i64 [ %niter.nsub.3, %for.body20.us ], [ %unroll_iter, %for.body.us ]
  %add.ptr.i.us = getelementptr inbounds float, float* %1, i64 %indvars.iv
  %20 = load float, float* %add.ptr.i.us, align 4, !tbaa !83
  %mul23.us = fmul float %mul17.us, %20
  %arrayidx.i.us = getelementptr inbounds float*, float** %2, i64 %indvars.iv
  %21 = load float*, float** %arrayidx.i.us, align 8, !tbaa !76
  %arrayidx28.us = getelementptr inbounds float, float* %21, i64 %indvars.iv71
  store float %mul23.us, float* %arrayidx28.us, align 4, !tbaa !83
  %indvars.iv.next = add nuw nsw i64 %indvars.iv, 1
  %add.ptr.i.us.1 = getelementptr inbounds float, float* %1, i64 %indvars.iv.next
  %22 = load float, float* %add.ptr.i.us.1, align 4, !tbaa !83
  %mul23.us.1 = fmul float %mul17.us, %22
  %arrayidx.i.us.1 = getelementptr inbounds float*, float** %2, i64 %indvars.iv.next
  %23 = load float*, float** %arrayidx.i.us.1, align 8, !tbaa !76
  %arrayidx28.us.1 = getelementptr inbounds float, float* %23, i64 %indvars.iv71
  store float %mul23.us.1, float* %arrayidx28.us.1, align 4, !tbaa !83
  %indvars.iv.next.1 = add nuw nsw i64 %indvars.iv, 2
  %add.ptr.i.us.2 = getelementptr inbounds float, float* %1, i64 %indvars.iv.next.1
  %24 = load float, float* %add.ptr.i.us.2, align 4, !tbaa !83
  %mul23.us.2 = fmul float %mul17.us, %24
  %arrayidx.i.us.2 = getelementptr inbounds float*, float** %2, i64 %indvars.iv.next.1
  %25 = load float*, float** %arrayidx.i.us.2, align 8, !tbaa !76
  %arrayidx28.us.2 = getelementptr inbounds float, float* %25, i64 %indvars.iv71
  store float %mul23.us.2, float* %arrayidx28.us.2, align 4, !tbaa !83
  %indvars.iv.next.2 = add nuw nsw i64 %indvars.iv, 3
  %add.ptr.i.us.3 = getelementptr inbounds float, float* %1, i64 %indvars.iv.next.2
  %26 = load float, float* %add.ptr.i.us.3, align 4, !tbaa !83
  %mul23.us.3 = fmul float %mul17.us, %26
  %arrayidx.i.us.3 = getelementptr inbounds float*, float** %2, i64 %indvars.iv.next.2
  %27 = load float*, float** %arrayidx.i.us.3, align 8, !tbaa !76
  %arrayidx28.us.3 = getelementptr inbounds float, float* %27, i64 %indvars.iv71
  store float %mul23.us.3, float* %arrayidx28.us.3, align 4, !tbaa !83
  %indvars.iv.next.3 = add nuw nsw i64 %indvars.iv, 4
  %niter.nsub.3 = add i64 %niter, -4
  %niter.ncmp.3 = icmp eq i64 %niter.nsub.3, 0
  br i1 %niter.ncmp.3, label %for.cond18.for.end_crit_edge.us.unr-lcssa, label %for.body20.us

for.cond18.for.end_crit_edge.us.unr-lcssa:        ; preds = %for.body20.us, %for.body.us
  %indvars.iv.unr = phi i64 [ 1, %for.body.us ], [ %indvars.iv.next.3, %for.body20.us ]
  br i1 %lcmp.mod, label %for.cond18.for.end_crit_edge.us, label %for.body20.us.epil

for.body20.us.epil:                               ; preds = %for.body20.us.epil, %for.cond18.for.end_crit_edge.us.unr-lcssa
  %indvars.iv.epil = phi i64 [ %indvars.iv.next.epil, %for.body20.us.epil ], [ %indvars.iv.unr, %for.cond18.for.end_crit_edge.us.unr-lcssa ]
  %epil.iter = phi i64 [ %epil.iter.sub, %for.body20.us.epil ], [ %xtraiter, %for.cond18.for.end_crit_edge.us.unr-lcssa ]
  %add.ptr.i.us.epil = getelementptr inbounds float, float* %1, i64 %indvars.iv.epil
  %28 = load float, float* %add.ptr.i.us.epil, align 4, !tbaa !83
  %mul23.us.epil = fmul float %mul17.us, %28
  %arrayidx.i.us.epil = getelementptr inbounds float*, float** %2, i64 %indvars.iv.epil
  %29 = load float*, float** %arrayidx.i.us.epil, align 8, !tbaa !76
  %arrayidx28.us.epil = getelementptr inbounds float, float* %29, i64 %indvars.iv71
  store float %mul23.us.epil, float* %arrayidx28.us.epil, align 4, !tbaa !83
  %indvars.iv.next.epil = add nuw nsw i64 %indvars.iv.epil, 1
  %epil.iter.sub = add i64 %epil.iter, -1
  %epil.iter.cmp = icmp eq i64 %epil.iter.sub, 0
  br i1 %epil.iter.cmp, label %for.cond18.for.end_crit_edge.us, label %for.body20.us.epil, !llvm.loop !174

for.cond18.for.end_crit_edge.us:                  ; preds = %for.body20.us.epil, %for.cond18.for.end_crit_edge.us.unr-lcssa
  %add30.us = add nsw i32 %rem64.us, 1
  %rem.us = urem i32 %add30.us, %6
  %add33.us = add nsw i32 %rem3565.us, 1
  %rem35.us = urem i32 %add33.us, %6
  %add38.us = add nsw i32 %rem4066.us, 1
  %rem40.us = urem i32 %add38.us, %6
  %indvars.iv.next72 = add nuw nsw i64 %indvars.iv71, 1
  %exitcond = icmp eq i64 %indvars.iv.next72, %wide.trip.count
  br i1 %exitcond, label %for.cond.for.end44_crit_edge, label %for.body.us

for.body:                                         ; preds = %for.body, %for.body.lr.ph
  %indvars.iv73 = phi i64 [ %indvars.iv.next74, %for.body ], [ 0, %for.body.lr.ph ]
  %rem4066 = phi i32 [ %rem40, %for.body ], [ %m_nOutB.promoted, %for.body.lr.ph ]
  %rem3565 = phi i32 [ %rem35, %for.body ], [ %m_nOutA.promoted, %for.body.lr.ph ]
  %rem64 = phi i32 [ %rem, %for.body ], [ %m_nIn.promoted, %for.body.lr.ph ]
  %arrayidx = getelementptr inbounds float, float* %pfSrc, i64 %indvars.iv73
  %30 = bitcast float* %arrayidx to i32*
  %31 = load i32, i32* %30, align 4, !tbaa !83
  %idxprom2 = sext i32 %rem64 to i64
  %arrayidx3 = getelementptr inbounds float, float* %0, i64 %idxprom2
  %32 = bitcast float* %arrayidx3 to i32*
  store i32 %31, i32* %32, align 4, !tbaa !83
  %idxprom5 = sext i32 %rem3565 to i64
  %arrayidx6 = getelementptr inbounds float, float* %0, i64 %idxprom5
  %33 = load float, float* %arrayidx6, align 4, !tbaa !83
  %34 = load float, float* %m_fDelay, align 4, !tbaa !168
  %sub = fsub float 1.000000e+00, %34
  %mul = fmul float %33, %sub
  %idxprom8 = sext i32 %rem4066 to i64
  %arrayidx9 = getelementptr inbounds float, float* %0, i64 %idxprom8
  %35 = load float, float* %arrayidx9, align 4, !tbaa !83
  %mul11 = fmul float %34, %35
  %add = fadd float %mul, %mul11
  %36 = load float, float* %m_fInteriorGain, align 8, !tbaa !160
  %mul12 = fmul float %36, %add
  %37 = load float, float* %1, align 4, !tbaa !83
  %mul13 = fmul float %mul12, %37
  %arrayidx16 = getelementptr inbounds float, float* %3, i64 %indvars.iv73
  store float %mul13, float* %arrayidx16, align 4, !tbaa !83
  %add30 = add nsw i32 %rem64, 1
  %rem = urem i32 %add30, %6
  %add33 = add nsw i32 %rem3565, 1
  %rem35 = urem i32 %add33, %6
  %add38 = add nsw i32 %rem4066, 1
  %rem40 = urem i32 %add38, %6
  %indvars.iv.next74 = add nuw nsw i64 %indvars.iv73, 1
  %exitcond76 = icmp eq i64 %indvars.iv.next74, %wide.trip.count
  br i1 %exitcond76, label %for.cond.for.end44_crit_edge, label %for.body

for.cond.for.end44_crit_edge:                     ; preds = %for.body, %for.cond18.for.end_crit_edge.us
  %rem40.lcssa = phi i32 [ %rem40.us, %for.cond18.for.end_crit_edge.us ], [ %rem40, %for.body ]
  %rem35.lcssa = phi i32 [ %rem35.us, %for.cond18.for.end_crit_edge.us ], [ %rem35, %for.body ]
  %rem.lcssa = phi i32 [ %rem.us, %for.cond18.for.end_crit_edge.us ], [ %rem, %for.body ]
  store i32 %rem.lcssa, i32* %m_nIn, align 8, !tbaa !169
  store i32 %rem35.lcssa, i32* %m_nOutA, align 4, !tbaa !170
  store i32 %rem40.lcssa, i32* %m_nOutB, align 8, !tbaa !171
  br label %for.end44

for.end44:                                        ; preds = %for.cond.for.end44_crit_edge, %entry
  ret void
}

; Function Attrs: nofree norecurse nounwind uwtable writeonly
define void @_ZN21CAmbisonicEncoderDist13SetRoomRadiusEf(%class.CAmbisonicEncoderDist* nocapture %this, float %fRoomRadius) local_unnamed_addr #5 align 2 !prof !103 {
entry:
  %m_fRoomRadius = getelementptr inbounds %class.CAmbisonicEncoderDist, %class.CAmbisonicEncoderDist* %this, i64 0, i32 9
  store float %fRoomRadius, float* %m_fRoomRadius, align 4, !tbaa !158
  ret void
}

; Function Attrs: norecurse nounwind readonly uwtable
define float @_ZN21CAmbisonicEncoderDist13GetRoomRadiusEv(%class.CAmbisonicEncoderDist* nocapture readonly %this) local_unnamed_addr #6 align 2 !prof !103 {
entry:
  %m_fRoomRadius = getelementptr inbounds %class.CAmbisonicEncoderDist, %class.CAmbisonicEncoderDist* %this, i64 0, i32 9
  %0 = load float, float* %m_fRoomRadius, align 4, !tbaa !158
  ret float %0
}

; Function Attrs: nounwind uwtable
define void @_ZN19CAmbisonicProcessorC2Ev(%class.CAmbisonicProcessor* %this) unnamed_addr #7 align 2 personality i8* bitcast (i32 (...)* @__gxx_personality_v0 to i8*) !prof !175 {
entry:
  %0 = getelementptr inbounds %class.CAmbisonicProcessor, %class.CAmbisonicProcessor* %this, i64 0, i32 0, i32 0
  %1 = getelementptr inbounds %class.CAmbisonicProcessor, %class.CAmbisonicProcessor* %this, i64 0, i32 0, i32 1
  store i32 0, i32* %1, align 8, !tbaa !97
  %2 = getelementptr inbounds %class.CAmbisonicProcessor, %class.CAmbisonicProcessor* %this, i64 0, i32 0, i32 2
  store i8 0, i8* %2, align 4, !tbaa !100
  %3 = getelementptr inbounds %class.CAmbisonicProcessor, %class.CAmbisonicProcessor* %this, i64 0, i32 0, i32 4
  store i32 0, i32* %3, align 8, !tbaa !101
  %4 = getelementptr inbounds %class.CAmbisonicProcessor, %class.CAmbisonicProcessor* %this, i64 0, i32 0, i32 5
  store i8 0, i8* %4, align 4, !tbaa !102
  store i32 (...)** bitcast (i8** getelementptr inbounds ({ [7 x i8*] }, { [7 x i8*] }* @_ZTV19CAmbisonicProcessor, i64 0, inrange i32 0, i64 2) to i32 (...)**), i32 (...)*** %0, align 8, !tbaa !68
  %m_orientation = getelementptr inbounds %class.CAmbisonicProcessor, %class.CAmbisonicProcessor* %this, i64 0, i32 1
  tail call void @_ZN11OrientationC2Efff(%class.Orientation* nonnull %m_orientation, float 0.000000e+00, float 0.000000e+00, float 0.000000e+00)
  %m_pfTempSample = getelementptr inbounds %class.CAmbisonicProcessor, %class.CAmbisonicProcessor* %this, i64 0, i32 2
  %m_ppcpPsychFilters = getelementptr inbounds %class.CAmbisonicProcessor, %class.CAmbisonicProcessor* %this, i64 0, i32 13
  %5 = bitcast float** %m_pfTempSample to i8*
  call void @llvm.memset.p0i8.i64(i8* nonnull align 8 %5, i8 0, i64 40, i1 false)
  %6 = bitcast %struct.kiss_fft_cpx*** %m_ppcpPsychFilters to i8*
  call void @llvm.memset.p0i8.i64(i8* nonnull align 8 %6, i8 0, i64 16, i1 false)
  ret void
}

; Function Attrs: nounwind uwtable
define linkonce_odr void @_ZN11OrientationC2Efff(%class.Orientation* %this, float %fYaw, float %fPitch, float %fRoll) unnamed_addr #7 comdat align 2 !prof !176 {
entry:
  %fYaw2 = getelementptr inbounds %class.Orientation, %class.Orientation* %this, i64 0, i32 0
  store float %fYaw, float* %fYaw2, align 4, !tbaa !177
  %fPitch3 = getelementptr inbounds %class.Orientation, %class.Orientation* %this, i64 0, i32 1
  store float %fPitch, float* %fPitch3, align 4, !tbaa !179
  %fRoll4 = getelementptr inbounds %class.Orientation, %class.Orientation* %this, i64 0, i32 2
  store float %fRoll, float* %fRoll4, align 4, !tbaa !180
  %call = tail call float @cosf(float %fYaw) #24
  %call5 = tail call float @sinf(float %fYaw) #24
  %call6 = tail call float @cosf(float %fRoll) #24
  %call7 = tail call float @sinf(float %fRoll) #24
  %call8 = tail call float @cosf(float %fPitch) #24
  %call9 = tail call float @sinf(float %fPitch) #24
  %mul = fmul float %call6, %call8
  %cmp = fcmp oeq float %mul, 1.000000e+00
  br i1 %cmp, label %if.then, label %if.else, !prof !181

if.then:                                          ; preds = %entry
  %fBeta = getelementptr inbounds %class.Orientation, %class.Orientation* %this, i64 0, i32 4
  store float 0.000000e+00, float* %fBeta, align 4, !tbaa !182
  %fGamma = getelementptr inbounds %class.Orientation, %class.Orientation* %this, i64 0, i32 5
  store float 0.000000e+00, float* %fGamma, align 4, !tbaa !183
  %conv = fpext float %call5 to double
  %conv10 = fpext float %call to double
  %call11 = tail call double @atan2(double %conv, double %conv10) #24
  %conv12 = fptrunc double %call11 to float
  %fAlpha = getelementptr inbounds %class.Orientation, %class.Orientation* %this, i64 0, i32 3
  store float %conv12, float* %fAlpha, align 4, !tbaa !184
  br label %if.end48

if.else:                                          ; preds = %entry
  %cmp13 = fcmp oeq float %mul, -1.000000e+00
  br i1 %cmp13, label %if.then14, label %if.else22, !prof !185

if.then14:                                        ; preds = %if.else
  %fBeta15 = getelementptr inbounds %class.Orientation, %class.Orientation* %this, i64 0, i32 4
  store float 0x400921FB60000000, float* %fBeta15, align 4, !tbaa !182
  %fGamma16 = getelementptr inbounds %class.Orientation, %class.Orientation* %this, i64 0, i32 5
  store float 0.000000e+00, float* %fGamma16, align 4, !tbaa !183
  %sub = fsub float -0.000000e+00, %call5
  %conv17 = fpext float %sub to double
  %conv18 = fpext float %call to double
  %call19 = tail call double @atan2(double %conv17, double %conv18) #24
  %conv20 = fptrunc double %call19 to float
  %fAlpha21 = getelementptr inbounds %class.Orientation, %class.Orientation* %this, i64 0, i32 3
  store float %conv20, float* %fAlpha21, align 4, !tbaa !184
  br label %if.end48

if.else22:                                        ; preds = %if.else
  %0 = fmul float %call, %call7
  %mul25 = fmul float %call6, %call9
  %mul26 = fmul float %call5, %mul25
  %add = fsub float %mul26, %0
  %mul27 = fmul float %call, %call6
  %mul28 = fmul float %mul27, %call9
  %mul29 = fmul float %call5, %call7
  %add30 = fadd float %mul29, %mul28
  %conv31 = fpext float %add to double
  %conv32 = fpext float %add30 to double
  %call33 = tail call double @atan2(double %conv31, double %conv32) #24
  %conv34 = fptrunc double %call33 to float
  %fAlpha35 = getelementptr inbounds %class.Orientation, %class.Orientation* %this, i64 0, i32 3
  store float %conv34, float* %fAlpha35, align 4, !tbaa !184
  %conv36 = fpext float %mul to double
  %call37 = tail call double @acos(double %conv36) #24
  %conv38 = fptrunc double %call37 to float
  %fBeta39 = getelementptr inbounds %class.Orientation, %class.Orientation* %this, i64 0, i32 4
  store float %conv38, float* %fBeta39, align 4, !tbaa !182
  %mul40 = fmul float %call7, %call8
  %conv42 = fpext float %mul40 to double
  %conv44 = fpext float %call9 to double
  %call45 = tail call double @atan2(double %conv42, double %conv44) #24
  %conv46 = fptrunc double %call45 to float
  %fGamma47 = getelementptr inbounds %class.Orientation, %class.Orientation* %this, i64 0, i32 5
  store float %conv46, float* %fGamma47, align 4, !tbaa !183
  br label %if.end48

if.end48:                                         ; preds = %if.else22, %if.then14, %if.then
  ret void
}

; Function Attrs: nounwind uwtable
define void @_ZN19CAmbisonicProcessorD2Ev(%class.CAmbisonicProcessor* nocapture %this) unnamed_addr #7 align 2 !prof !103 {
entry:
  %0 = getelementptr inbounds %class.CAmbisonicProcessor, %class.CAmbisonicProcessor* %this, i64 0, i32 0, i32 0
  store i32 (...)** bitcast (i8** getelementptr inbounds ({ [7 x i8*] }, { [7 x i8*] }* @_ZTV19CAmbisonicProcessor, i64 0, inrange i32 0, i64 2) to i32 (...)**), i32 (...)*** %0, align 8, !tbaa !68
  %m_pfTempSample = getelementptr inbounds %class.CAmbisonicProcessor, %class.CAmbisonicProcessor* %this, i64 0, i32 2
  %1 = load float*, float** %m_pfTempSample, align 8, !tbaa !186
  %tobool = icmp eq float* %1, null
  br i1 %tobool, label %if.end, label %delete.notnull

delete.notnull:                                   ; preds = %entry
  %2 = bitcast float* %1 to i8*
  tail call void @_ZdaPv(i8* %2) #26
  br label %if.end

if.end:                                           ; preds = %delete.notnull, %entry
  %m_pfScratchBufferA = getelementptr inbounds %class.CAmbisonicProcessor, %class.CAmbisonicProcessor* %this, i64 0, i32 5
  %3 = load float*, float** %m_pfScratchBufferA, align 8, !tbaa !188
  %tobool3 = icmp eq float* %3, null
  br i1 %tobool3, label %if.end9, label %delete.notnull7

delete.notnull7:                                  ; preds = %if.end
  %4 = bitcast float* %3 to i8*
  tail call void @_ZdaPv(i8* %4) #26
  br label %if.end9

if.end9:                                          ; preds = %delete.notnull7, %if.end
  %m_pFFT_psych_cfg = getelementptr inbounds %class.CAmbisonicProcessor, %class.CAmbisonicProcessor* %this, i64 0, i32 3
  %5 = load %struct.kiss_fftr_state*, %struct.kiss_fftr_state** %m_pFFT_psych_cfg, align 8, !tbaa !189
  %tobool10 = icmp eq %struct.kiss_fftr_state* %5, null
  br i1 %tobool10, label %if.end13, label %if.then11

if.then11:                                        ; preds = %if.end9
  %6 = bitcast %struct.kiss_fftr_state* %5 to i8*
  tail call void @free(i8* %6) #24
  br label %if.end13

if.end13:                                         ; preds = %if.then11, %if.end9
  %m_pIFFT_psych_cfg = getelementptr inbounds %class.CAmbisonicProcessor, %class.CAmbisonicProcessor* %this, i64 0, i32 4
  %7 = load %struct.kiss_fftr_state*, %struct.kiss_fftr_state** %m_pIFFT_psych_cfg, align 8, !tbaa !190
  %tobool14 = icmp eq %struct.kiss_fftr_state* %7, null
  br i1 %tobool14, label %if.end17, label %if.then15

if.then15:                                        ; preds = %if.end13
  %8 = bitcast %struct.kiss_fftr_state* %7 to i8*
  tail call void @free(i8* %8) #24
  br label %if.end17

if.end17:                                         ; preds = %if.then15, %if.end13
  %m_ppcpPsychFilters = getelementptr inbounds %class.CAmbisonicProcessor, %class.CAmbisonicProcessor* %this, i64 0, i32 13
  %9 = load %struct.kiss_fft_cpx**, %struct.kiss_fft_cpx*** %m_ppcpPsychFilters, align 8, !tbaa !191
  %tobool18 = icmp eq %struct.kiss_fft_cpx** %9, null
  br i1 %tobool18, label %if.end34, label %for.cond.preheader

for.cond.preheader:                               ; preds = %if.end17
  %10 = getelementptr inbounds %class.CAmbisonicProcessor, %class.CAmbisonicProcessor* %this, i64 0, i32 0, i32 1
  br label %for.body

for.cond.cleanup:                                 ; preds = %for.inc
  %isnull31 = icmp eq %struct.kiss_fft_cpx** %.pr, null
  br i1 %isnull31, label %if.end34, label %delete.notnull32

for.body:                                         ; preds = %for.inc, %for.cond.preheader
  %.pr90 = phi %struct.kiss_fft_cpx** [ %9, %for.cond.preheader ], [ %.pr, %for.inc ]
  %i.089 = phi i32 [ 0, %for.cond.preheader ], [ %inc, %for.inc ]
  %idxprom = zext i32 %i.089 to i64
  %arrayidx = getelementptr inbounds %struct.kiss_fft_cpx*, %struct.kiss_fft_cpx** %.pr90, i64 %idxprom
  %11 = load %struct.kiss_fft_cpx*, %struct.kiss_fft_cpx** %arrayidx, align 8, !tbaa !76
  %tobool21 = icmp eq %struct.kiss_fft_cpx* %11, null
  br i1 %tobool21, label %for.inc, label %delete.notnull27

delete.notnull27:                                 ; preds = %for.body
  %12 = bitcast %struct.kiss_fft_cpx* %11 to i8*
  tail call void @_ZdaPv(i8* %12) #26
  %.pr.pre = load %struct.kiss_fft_cpx**, %struct.kiss_fft_cpx*** %m_ppcpPsychFilters, align 8, !tbaa !191
  br label %for.inc

for.inc:                                          ; preds = %delete.notnull27, %for.body
  %.pr = phi %struct.kiss_fft_cpx** [ %.pr90, %for.body ], [ %.pr.pre, %delete.notnull27 ]
  %inc = add i32 %i.089, 1
  %13 = load i32, i32* %10, align 8, !tbaa !97
  %cmp = icmp ugt i32 %inc, %13
  br i1 %cmp, label %for.cond.cleanup, label %for.body

delete.notnull32:                                 ; preds = %for.cond.cleanup
  %14 = bitcast %struct.kiss_fft_cpx** %.pr to i8*
  tail call void @_ZdaPv(i8* %14) #26
  br label %if.end34

if.end34:                                         ; preds = %delete.notnull32, %for.cond.cleanup, %if.end17
  %m_pcpScratch = getelementptr inbounds %class.CAmbisonicProcessor, %class.CAmbisonicProcessor* %this, i64 0, i32 14
  %15 = load %struct.kiss_fft_cpx*, %struct.kiss_fft_cpx** %m_pcpScratch, align 8, !tbaa !192
  %tobool35 = icmp eq %struct.kiss_fft_cpx* %15, null
  br i1 %tobool35, label %if.end41, label %delete.notnull39

delete.notnull39:                                 ; preds = %if.end34
  %16 = bitcast %struct.kiss_fft_cpx* %15 to i8*
  tail call void @_ZdaPv(i8* %16) #26
  br label %if.end41

if.end41:                                         ; preds = %delete.notnull39, %if.end34
  %m_pfOverlap = getelementptr inbounds %class.CAmbisonicProcessor, %class.CAmbisonicProcessor* %this, i64 0, i32 6
  %17 = load float**, float*** %m_pfOverlap, align 8, !tbaa !193
  %tobool42 = icmp eq float** %17, null
  br i1 %tobool42, label %if.end68, label %for.cond45.preheader

for.cond45.preheader:                             ; preds = %if.end41
  %18 = getelementptr inbounds %class.CAmbisonicProcessor, %class.CAmbisonicProcessor* %this, i64 0, i32 0, i32 4
  %19 = load i32, i32* %18, align 8, !tbaa !101
  %cmp4687 = icmp eq i32 %19, 0
  br i1 %cmp4687, label %delete.notnull66, label %for.body48

for.cond.cleanup47:                               ; preds = %for.inc61
  %isnull65 = icmp eq float** %.pr85, null
  br i1 %isnull65, label %if.end68, label %delete.notnull66

for.body48:                                       ; preds = %for.inc61, %for.cond45.preheader
  %20 = phi i32 [ %23, %for.inc61 ], [ %19, %for.cond45.preheader ]
  %.pr8592 = phi float** [ %.pr85, %for.inc61 ], [ %17, %for.cond45.preheader ]
  %indvars.iv = phi i64 [ %indvars.iv.next, %for.inc61 ], [ 0, %for.cond45.preheader ]
  %arrayidx51 = getelementptr inbounds float*, float** %.pr8592, i64 %indvars.iv
  %21 = load float*, float** %arrayidx51, align 8, !tbaa !76
  %tobool52 = icmp eq float* %21, null
  br i1 %tobool52, label %for.inc61, label %delete.notnull58

delete.notnull58:                                 ; preds = %for.body48
  %22 = bitcast float* %21 to i8*
  tail call void @_ZdaPv(i8* %22) #26
  %.pr85.pre = load float**, float*** %m_pfOverlap, align 8, !tbaa !193
  %.pre = load i32, i32* %18, align 8, !tbaa !101
  br label %for.inc61

for.inc61:                                        ; preds = %delete.notnull58, %for.body48
  %23 = phi i32 [ %20, %for.body48 ], [ %.pre, %delete.notnull58 ]
  %.pr85 = phi float** [ %.pr8592, %for.body48 ], [ %.pr85.pre, %delete.notnull58 ]
  %indvars.iv.next = add nuw nsw i64 %indvars.iv, 1
  %24 = zext i32 %23 to i64
  %cmp46 = icmp ult i64 %indvars.iv.next, %24
  br i1 %cmp46, label %for.body48, label %for.cond.cleanup47

delete.notnull66:                                 ; preds = %for.cond.cleanup47, %for.cond45.preheader
  %.lcssa96 = phi float** [ %.pr85, %for.cond.cleanup47 ], [ %17, %for.cond45.preheader ]
  %25 = bitcast float** %.lcssa96 to i8*
  tail call void @_ZdaPv(i8* %25) #26
  br label %if.end68

if.end68:                                         ; preds = %delete.notnull66, %for.cond.cleanup47, %if.end41
  ret void
}

; Function Attrs: nounwind
declare void @free(i8* nocapture) #1

; Function Attrs: nounwind uwtable
define void @_ZN19CAmbisonicProcessorD0Ev(%class.CAmbisonicProcessor* %this) unnamed_addr #7 align 2 {
entry:
  tail call void @_ZN19CAmbisonicProcessorD2Ev(%class.CAmbisonicProcessor* %this) #24
  %0 = bitcast %class.CAmbisonicProcessor* %this to i8*
  tail call void @_ZdlPv(i8* %0) #26
  ret void
}

; Function Attrs: uwtable
define zeroext i1 @_ZN19CAmbisonicProcessor9ConfigureEjbjj(%class.CAmbisonicProcessor* %this, i32 %nOrder, i1 zeroext %b3D, i32 %nBlockSize, i32 %nMisc) local_unnamed_addr #3 align 2 personality i8* bitcast (i32 (...)* @__gxx_personality_v0 to i8*) !prof !175 {
entry:
  %pfPsychIR = alloca %"class.std::vector.7", align 8
  %ref.tmp = alloca float*, align 8
  %frombool.i = zext i1 %b3D to i8
  %0 = getelementptr inbounds %class.CAmbisonicProcessor, %class.CAmbisonicProcessor* %this, i64 0, i32 0, i32 1
  store i32 %nOrder, i32* %0, align 8, !tbaa !97
  %1 = getelementptr inbounds %class.CAmbisonicProcessor, %class.CAmbisonicProcessor* %this, i64 0, i32 0, i32 2
  store i8 %frombool.i, i8* %1, align 4, !tbaa !100
  %call.i = tail call i32 @_Z17OrderToComponentsjb(i32 %nOrder, i1 zeroext %b3D)
  %2 = getelementptr inbounds %class.CAmbisonicProcessor, %class.CAmbisonicProcessor* %this, i64 0, i32 0, i32 4
  store i32 %call.i, i32* %2, align 8, !tbaa !101
  %m_pfTempSample = getelementptr inbounds %class.CAmbisonicProcessor, %class.CAmbisonicProcessor* %this, i64 0, i32 2
  %3 = load float*, float** %m_pfTempSample, align 8, !tbaa !186
  %tobool4 = icmp eq float* %3, null
  br i1 %tobool4, label %if.end7, label %delete.notnull, !prof !194

delete.notnull:                                   ; preds = %entry
  %4 = bitcast float* %3 to i8*
  tail call void @_ZdaPv(i8* %4) #26
  %.pre = load i32, i32* %2, align 8, !tbaa !101
  br label %if.end7

if.end7:                                          ; preds = %delete.notnull, %entry
  %5 = phi i32 [ %call.i, %entry ], [ %.pre, %delete.notnull ]
  %conv = zext i32 %5 to i64
  %6 = shl nuw nsw i64 %conv, 2
  %call8 = tail call i8* @_Znam(i64 %6) #25
  %7 = bitcast float** %m_pfTempSample to i8**
  store i8* %call8, i8** %7, align 8, !tbaa !186
  tail call void @llvm.memset.p0i8.i64(i8* nonnull align 4 %call8, i8 0, i64 %6, i1 false)
  %8 = getelementptr inbounds %class.CAmbisonicProcessor, %class.CAmbisonicProcessor* %this, i64 0, i32 0, i32 5
  store i8 1, i8* %8, align 4, !tbaa !102
  %m_nBlockSize = getelementptr inbounds %class.CAmbisonicProcessor, %class.CAmbisonicProcessor* %this, i64 0, i32 8
  store i32 %nBlockSize, i32* %m_nBlockSize, align 4, !tbaa !195
  %m_nTaps = getelementptr inbounds %class.CAmbisonicProcessor, %class.CAmbisonicProcessor* %this, i64 0, i32 9
  store i32 101, i32* %m_nTaps, align 8, !tbaa !196
  %cmp = icmp ult i32 %nBlockSize, 101
  %sub = add i32 %nBlockSize, -1
  %cond = select i1 %cmp, i32 %sub, i32 100, !prof !197
  %m_nOverlapLength = getelementptr inbounds %class.CAmbisonicProcessor, %class.CAmbisonicProcessor* %this, i64 0, i32 10
  store i32 %cond, i32* %m_nOverlapLength, align 4, !tbaa !198
  %add = add i32 %nBlockSize, 101
  %add22 = add i32 %add, %cond
  br label %while.cond

while.cond:                                       ; preds = %while.cond, %if.end7
  %storemerge = phi i32 [ 1, %if.end7 ], [ %shl, %while.cond ]
  %cmp23 = icmp ult i32 %storemerge, %add22
  %shl = shl i32 %storemerge, 1
  br i1 %cmp23, label %while.cond, label %while.end, !prof !199

while.end:                                        ; preds = %while.cond
  %m_nFFTSize = getelementptr inbounds %class.CAmbisonicProcessor, %class.CAmbisonicProcessor* %this, i64 0, i32 7
  store i32 %storemerge, i32* %m_nFFTSize, align 8, !tbaa !200
  %div = lshr i32 %storemerge, 1
  %add26 = add nuw i32 %div, 1
  %m_nFFTBins = getelementptr inbounds %class.CAmbisonicProcessor, %class.CAmbisonicProcessor* %this, i64 0, i32 11
  store i32 %add26, i32* %m_nFFTBins, align 8, !tbaa !201
  %conv28 = uitofp i32 %storemerge to float
  %div29 = fdiv float 1.000000e+00, %conv28
  %m_fFFTScaler = getelementptr inbounds %class.CAmbisonicProcessor, %class.CAmbisonicProcessor* %this, i64 0, i32 12
  store float %div29, float* %m_fFFTScaler, align 4, !tbaa !202
  %9 = shl nuw nsw i64 %conv, 3
  %call32 = tail call i8* @_Znam(i64 %9) #25
  %m_pfOverlap = getelementptr inbounds %class.CAmbisonicProcessor, %class.CAmbisonicProcessor* %this, i64 0, i32 6
  %10 = bitcast float*** %m_pfOverlap to i8**
  store i8* %call32, i8** %10, align 8, !tbaa !193
  %cmp34295 = icmp eq i32 %5, 0
  br i1 %cmp34295, label %for.cond.cleanup, label %for.body.lr.ph, !prof !203

for.body.lr.ph:                                   ; preds = %while.end
  %conv36 = zext i32 %cond to i64
  %11 = shl nuw nsw i64 %conv36, 2
  br label %for.body

for.cond.cleanup:                                 ; preds = %for.body, %while.end
  %conv40 = zext i32 %storemerge to i64
  %12 = shl nuw nsw i64 %conv40, 2
  %call41 = tail call i8* @_Znam(i64 %12) #25
  %m_pfScratchBufferA = getelementptr inbounds %class.CAmbisonicProcessor, %class.CAmbisonicProcessor* %this, i64 0, i32 5
  %13 = bitcast float** %m_pfScratchBufferA to i8**
  store i8* %call41, i8** %13, align 8, !tbaa !188
  %14 = load i32, i32* %0, align 8, !tbaa !97
  %add42 = add i32 %14, 1
  %conv43 = zext i32 %add42 to i64
  %15 = shl nuw nsw i64 %conv43, 3
  %call44 = tail call i8* @_Znam(i64 %15) #25
  %m_ppcpPsychFilters = getelementptr inbounds %class.CAmbisonicProcessor, %class.CAmbisonicProcessor* %this, i64 0, i32 13
  %16 = bitcast %struct.kiss_fft_cpx*** %m_ppcpPsychFilters to i8**
  store i8* %call44, i8** %16, align 8, !tbaa !191
  %conv61 = zext i32 %add26 to i64
  %17 = shl nuw nsw i64 %conv61, 3
  %call62292 = tail call i8* @_Znam(i64 %17) #25
  %18 = bitcast i8* %call44 to i8**
  store i8* %call62292, i8** %18, align 8, !tbaa !76
  %cmp48309 = icmp eq i32 %14, 0
  %call62310 = tail call i8* @_Znam(i64 %17) #25
  br i1 %cmp48309, label %for.cond.cleanup49, label %for.body50.for.body50_crit_edge.peel, !prof !204

for.body50.for.body50_crit_edge.peel:             ; preds = %for.cond.cleanup
  %.pre303.peel = load %struct.kiss_fft_cpx**, %struct.kiss_fft_cpx*** %m_ppcpPsychFilters, align 8, !tbaa !191
  %arrayidx56.peel = getelementptr inbounds %struct.kiss_fft_cpx*, %struct.kiss_fft_cpx** %.pre303.peel, i64 1
  %19 = bitcast %struct.kiss_fft_cpx** %arrayidx56.peel to i8**
  store i8* %call62310, i8** %19, align 8, !tbaa !76
  %cmp48.peel = icmp ult i32 %14, 2
  %call62.peel = tail call i8* @_Znam(i64 %17) #25
  br i1 %cmp48.peel, label %for.cond.cleanup49, label %for.body50.for.body50_crit_edge.peel316, !prof !205

for.body50.for.body50_crit_edge.peel316:          ; preds = %for.body50.for.body50_crit_edge.peel
  %.pre303.peel317 = load %struct.kiss_fft_cpx**, %struct.kiss_fft_cpx*** %m_ppcpPsychFilters, align 8, !tbaa !191
  %arrayidx56.peel319 = getelementptr inbounds %struct.kiss_fft_cpx*, %struct.kiss_fft_cpx** %.pre303.peel317, i64 2
  %20 = bitcast %struct.kiss_fft_cpx** %arrayidx56.peel319 to i8**
  store i8* %call62.peel, i8** %20, align 8, !tbaa !76
  %cmp48.peel321 = icmp ult i32 %14, 3
  %call62.peel322 = tail call i8* @_Znam(i64 %17) #25
  br i1 %cmp48.peel321, label %for.cond.cleanup49, label %for.body50.for.body50_crit_edge.peel324, !prof !206

for.body50.for.body50_crit_edge.peel324:          ; preds = %for.body50.for.body50_crit_edge.peel316
  %.pre303.peel325 = load %struct.kiss_fft_cpx**, %struct.kiss_fft_cpx*** %m_ppcpPsychFilters, align 8, !tbaa !191
  %arrayidx56.peel327 = getelementptr inbounds %struct.kiss_fft_cpx*, %struct.kiss_fft_cpx** %.pre303.peel325, i64 3
  %21 = bitcast %struct.kiss_fft_cpx** %arrayidx56.peel327 to i8**
  store i8* %call62.peel322, i8** %21, align 8, !tbaa !76
  %cmp48.peel329 = icmp ult i32 %14, 4
  %call62.peel330 = tail call i8* @_Znam(i64 %17) #25
  br i1 %cmp48.peel329, label %for.cond.cleanup49, label %for.body50.for.body50_crit_edge.peel332, !prof !207

for.body50.for.body50_crit_edge.peel332:          ; preds = %for.body50.for.body50_crit_edge.peel324
  %.pre303.peel333 = load %struct.kiss_fft_cpx**, %struct.kiss_fft_cpx*** %m_ppcpPsychFilters, align 8, !tbaa !191
  %arrayidx56.peel335 = getelementptr inbounds %struct.kiss_fft_cpx*, %struct.kiss_fft_cpx** %.pre303.peel333, i64 4
  %22 = bitcast %struct.kiss_fft_cpx** %arrayidx56.peel335 to i8**
  store i8* %call62.peel330, i8** %22, align 8, !tbaa !76
  %cmp48.peel337 = icmp ult i32 %14, 5
  %call62.peel338 = tail call i8* @_Znam(i64 %17) #25
  br i1 %cmp48.peel337, label %for.cond.cleanup49, label %for.body50.for.body50_crit_edge, !prof !208

for.body:                                         ; preds = %for.body, %for.body.lr.ph
  %indvars.iv301 = phi i64 [ 0, %for.body.lr.ph ], [ %indvars.iv.next302, %for.body ]
  %call37 = tail call i8* @_Znam(i64 %11) #25
  %23 = load float**, float*** %m_pfOverlap, align 8, !tbaa !193
  %arrayidx = getelementptr inbounds float*, float** %23, i64 %indvars.iv301
  %24 = bitcast float** %arrayidx to i8**
  store i8* %call37, i8** %24, align 8, !tbaa !76
  %indvars.iv.next302 = add nuw nsw i64 %indvars.iv301, 1
  %exitcond = icmp eq i64 %indvars.iv.next302, %conv
  br i1 %exitcond, label %for.cond.cleanup, label %for.body, !prof !203

for.cond.cleanup49:                               ; preds = %for.body50.for.body50_crit_edge, %for.body50.for.body50_crit_edge.peel332, %for.body50.for.body50_crit_edge.peel324, %for.body50.for.body50_crit_edge.peel316, %for.body50.for.body50_crit_edge.peel, %for.cond.cleanup
  %call62.lcssa = phi i8* [ %call62310, %for.cond.cleanup ], [ %call62.peel, %for.body50.for.body50_crit_edge.peel ], [ %call62.peel322, %for.body50.for.body50_crit_edge.peel316 ], [ %call62.peel330, %for.body50.for.body50_crit_edge.peel324 ], [ %call62.peel338, %for.body50.for.body50_crit_edge.peel332 ], [ %call62, %for.body50.for.body50_crit_edge ]
  %m_pcpScratch = getelementptr inbounds %class.CAmbisonicProcessor, %class.CAmbisonicProcessor* %this, i64 0, i32 14
  %25 = bitcast %struct.kiss_fft_cpx** %m_pcpScratch to i8**
  store i8* %call62.lcssa, i8** %25, align 8, !tbaa !192
  %26 = bitcast %"class.std::vector.7"* %pfPsychIR to i8*
  call void @llvm.lifetime.start.p0i8(i64 24, i8* nonnull %26) #24
  call void @llvm.memset.p0i8.i64(i8* nonnull align 8 %26, i8 0, i64 24, i1 false) #24
  %27 = bitcast float** %ref.tmp to i8*
  %28 = bitcast float** %ref.tmp to i8**
  %_M_finish.i = getelementptr inbounds %"class.std::vector.7", %"class.std::vector.7"* %pfPsychIR, i64 0, i32 0, i32 0, i32 1
  %_M_end_of_storage.i = getelementptr inbounds %"class.std::vector.7", %"class.std::vector.7"* %pfPsychIR, i64 0, i32 0, i32 0, i32 2
  br label %for.body68

for.body50.for.body50_crit_edge:                  ; preds = %for.body50.for.body50_crit_edge, %for.body50.for.body50_crit_edge.peel332
  %call62312 = phi i8* [ %call62, %for.body50.for.body50_crit_edge ], [ %call62.peel338, %for.body50.for.body50_crit_edge.peel332 ]
  %inc58311 = phi i32 [ %inc58, %for.body50.for.body50_crit_edge ], [ 5, %for.body50.for.body50_crit_edge.peel332 ]
  %.pre303 = load %struct.kiss_fft_cpx**, %struct.kiss_fft_cpx*** %m_ppcpPsychFilters, align 8, !tbaa !191
  %idxprom55 = zext i32 %inc58311 to i64
  %arrayidx56 = getelementptr inbounds %struct.kiss_fft_cpx*, %struct.kiss_fft_cpx** %.pre303, i64 %idxprom55
  %29 = bitcast %struct.kiss_fft_cpx** %arrayidx56 to i8**
  store i8* %call62312, i8** %29, align 8, !tbaa !76
  %inc58 = add i32 %inc58311, 1
  %cmp48 = icmp ugt i32 %inc58, %14
  %call62 = tail call i8* @_Znam(i64 %17) #25
  br i1 %cmp48, label %for.cond.cleanup49, label %for.body50.for.body50_crit_edge, !prof !204, !llvm.loop !209

for.cond.cleanup67:                               ; preds = %invoke.cont72
  %30 = bitcast %class.CAmbisonicProcessor* %this to void (%class.CAmbisonicProcessor*)***
  %vtable = load void (%class.CAmbisonicProcessor*)**, void (%class.CAmbisonicProcessor*)*** %30, align 8, !tbaa !68
  %vfn = getelementptr inbounds void (%class.CAmbisonicProcessor*)*, void (%class.CAmbisonicProcessor*)** %vtable, i64 3
  %31 = load void (%class.CAmbisonicProcessor*)*, void (%class.CAmbisonicProcessor*)** %vfn, align 8
  invoke void %31(%class.CAmbisonicProcessor* nonnull %this)
          to label %invoke.cont77 unwind label %lpad76

for.body68:                                       ; preds = %invoke.cont72.for.body68_crit_edge, %for.cond.cleanup49
  %32 = phi i32 [ %14, %for.cond.cleanup49 ], [ %39, %invoke.cont72.for.body68_crit_edge ]
  %33 = phi i32 [ 101, %for.cond.cleanup49 ], [ %.pre304, %invoke.cont72.for.body68_crit_edge ]
  %i63.0291 = phi i32 [ 0, %for.cond.cleanup49 ], [ %inc74, %invoke.cont72.for.body68_crit_edge ]
  call void @llvm.lifetime.start.p0i8(i64 8, i8* nonnull %27) #24
  %conv70 = zext i32 %33 to i64
  %34 = shl nuw nsw i64 %conv70, 2
  %call71 = invoke i8* @_Znam(i64 %34) #25
          to label %invoke.cont unwind label %lpad

invoke.cont:                                      ; preds = %for.body68
  store i8* %call71, i8** %28, align 8, !tbaa !76
  %35 = load %"class.std::unique_ptr.12"*, %"class.std::unique_ptr.12"** %_M_finish.i, align 8, !tbaa !210
  %36 = load %"class.std::unique_ptr.12"*, %"class.std::unique_ptr.12"** %_M_end_of_storage.i, align 8, !tbaa !213
  %cmp.i = icmp eq %"class.std::unique_ptr.12"* %35, %36
  br i1 %cmp.i, label %if.else.i, label %if.then.i, !prof !214

if.then.i:                                        ; preds = %invoke.cont
  %37 = ptrtoint i8* %call71 to i64
  %38 = bitcast %"class.std::unique_ptr.12"* %35 to i64*
  store i64 %37, i64* %38, align 8, !tbaa !215
  %incdec.ptr.i = getelementptr inbounds %"class.std::unique_ptr.12", %"class.std::unique_ptr.12"* %35, i64 1
  store %"class.std::unique_ptr.12"* %incdec.ptr.i, %"class.std::unique_ptr.12"** %_M_finish.i, align 8, !tbaa !210
  br label %invoke.cont72

if.else.i:                                        ; preds = %invoke.cont
  invoke void @_ZNSt6vectorISt10unique_ptrIA_fSt14default_deleteIS1_EESaIS4_EE19_M_emplace_back_auxIJPfEEEvDpOT_(%"class.std::vector.7"* nonnull %pfPsychIR, float** nonnull dereferenceable(8) %ref.tmp)
          to label %if.else.i.invoke.cont72_crit_edge unwind label %lpad

if.else.i.invoke.cont72_crit_edge:                ; preds = %if.else.i
  %.pre305 = load i32, i32* %0, align 8, !tbaa !97
  br label %invoke.cont72

invoke.cont72:                                    ; preds = %if.else.i.invoke.cont72_crit_edge, %if.then.i
  %39 = phi i32 [ %.pre305, %if.else.i.invoke.cont72_crit_edge ], [ %32, %if.then.i ]
  call void @llvm.lifetime.end.p0i8(i64 8, i8* nonnull %27) #24
  %inc74 = add i32 %i63.0291, 1
  %cmp66 = icmp ugt i32 %inc74, %39
  br i1 %cmp66, label %for.cond.cleanup67, label %invoke.cont72.for.body68_crit_edge, !prof !204

invoke.cont72.for.body68_crit_edge:               ; preds = %invoke.cont72
  %.pre304 = load i32, i32* %m_nTaps, align 8, !tbaa !196
  br label %for.body68

lpad:                                             ; preds = %if.else.i, %for.body68
  %40 = landingpad { i8*, i32 }
          cleanup
  %41 = extractvalue { i8*, i32 } %40, 0
  %42 = extractvalue { i8*, i32 } %40, 1
  call void @llvm.lifetime.end.p0i8(i64 8, i8* nonnull %27) #24
  br label %ehcleanup214

invoke.cont77:                                    ; preds = %for.cond.cleanup67
  %43 = load i32, i32* %m_nFFTSize, align 8, !tbaa !200
  %call80 = invoke %struct.kiss_fftr_state* @kiss_fftr_alloc(i32 %43, i32 0, i8* null, i64* null)
          to label %invoke.cont79 unwind label %lpad76

invoke.cont79:                                    ; preds = %invoke.cont77
  %m_pFFT_psych_cfg = getelementptr inbounds %class.CAmbisonicProcessor, %class.CAmbisonicProcessor* %this, i64 0, i32 3
  store %struct.kiss_fftr_state* %call80, %struct.kiss_fftr_state** %m_pFFT_psych_cfg, align 8, !tbaa !189
  %44 = load i32, i32* %m_nFFTSize, align 8, !tbaa !200
  %call83 = invoke %struct.kiss_fftr_state* @kiss_fftr_alloc(i32 %44, i32 1, i8* null, i64* null)
          to label %invoke.cont82 unwind label %lpad76

invoke.cont82:                                    ; preds = %invoke.cont79
  %m_pIFFT_psych_cfg = getelementptr inbounds %class.CAmbisonicProcessor, %class.CAmbisonicProcessor* %this, i64 0, i32 4
  store %struct.kiss_fftr_state* %call83, %struct.kiss_fftr_state** %m_pIFFT_psych_cfg, align 8, !tbaa !190
  %45 = load i32, i32* %0, align 8, !tbaa !97
  %_M_start.i275 = getelementptr inbounds %"class.std::vector.7", %"class.std::vector.7"* %pfPsychIR, i64 0, i32 0, i32 0, i32 0
  br label %for.cond90.preheader

for.cond90.preheader:                             ; preds = %for.inc211, %invoke.cont82
  %46 = phi i32 [ %45, %invoke.cont82 ], [ %70, %for.inc211 ]
  %i_m.0289 = phi i32 [ 0, %invoke.cont82 ], [ %inc212, %for.inc211 ]
  %47 = load i32, i32* %m_nTaps, align 8, !tbaa !196
  %cmp92286 = icmp eq i32 %47, 0
  br i1 %cmp92286, label %for.cond90.preheader.for.cond.cleanup93_crit_edge, label %for.body94.lr.ph, !prof !217

for.cond90.preheader.for.cond.cleanup93_crit_edge: ; preds = %for.cond90.preheader
  %.pre306 = zext i32 %i_m.0289 to i64
  br label %for.cond.cleanup93

for.body94.lr.ph:                                 ; preds = %for.cond90.preheader
  %48 = load i8, i8* %1, align 4, !tbaa !100, !range !104
  %tobool95 = icmp eq i8 %48, 0
  %idxprom127 = zext i32 %i_m.0289 to i64
  %49 = load %"class.std::unique_ptr.12"*, %"class.std::unique_ptr.12"** %_M_start.i275, align 8
  %_M_head_impl.i.i.i.i.i.i273 = getelementptr inbounds %"class.std::unique_ptr.12", %"class.std::unique_ptr.12"* %49, i64 %idxprom127, i32 0, i32 0, i32 0, i32 0
  %50 = zext i32 %47 to i64
  br i1 %tobool95, label %for.body94.us, label %for.body94, !prof !218

